
lab9.exe:     file format pei-x86-64


Disassembly of section .text:

0000000140001000 <__mingw_invalidParameterHandler>:
   140001000:	c3                   	ret
   140001001:	66 66 2e 0f 1f 84 00 	data16 cs nopw 0x0(%rax,%rax,1)
   140001008:	00 00 00 00 
   14000100c:	0f 1f 40 00          	nopl   0x0(%rax)

0000000140001010 <pre_c_init>:
   140001010:	48 83 ec 28          	sub    $0x28,%rsp
   140001014:	48 8b 05 b5 98 00 00 	mov    0x98b5(%rip),%rax        # 14000a8d0 <.refptr.__mingw_initltsdrot_force>
   14000101b:	31 c9                	xor    %ecx,%ecx
   14000101d:	c7 00 01 00 00 00    	movl   $0x1,(%rax)
   140001023:	48 8b 05 b6 98 00 00 	mov    0x98b6(%rip),%rax        # 14000a8e0 <.refptr.__mingw_initltsdyn_force>
   14000102a:	c7 00 01 00 00 00    	movl   $0x1,(%rax)
   140001030:	48 8b 05 b9 98 00 00 	mov    0x98b9(%rip),%rax        # 14000a8f0 <.refptr.__mingw_initltssuo_force>
   140001037:	c7 00 01 00 00 00    	movl   $0x1,(%rax)
   14000103d:	48 8b 05 3c 98 00 00 	mov    0x983c(%rip),%rax        # 14000a880 <.refptr.__image_base__>
   140001044:	66 81 38 4d 5a       	cmpw   $0x5a4d,(%rax)
   140001049:	75 0f                	jne    14000105a <pre_c_init+0x4a>
   14000104b:	48 63 50 3c          	movslq 0x3c(%rax),%rdx
   14000104f:	48 01 d0             	add    %rdx,%rax
   140001052:	81 38 50 45 00 00    	cmpl   $0x4550,(%rax)
   140001058:	74 66                	je     1400010c0 <pre_c_init+0xb0>
   14000105a:	48 8b 05 5f 98 00 00 	mov    0x985f(%rip),%rax        # 14000a8c0 <.refptr.__mingw_app_type>
   140001061:	89 0d a5 cf 00 00    	mov    %ecx,0xcfa5(%rip)        # 14000e00c <managedapp>
   140001067:	8b 00                	mov    (%rax),%eax
   140001069:	85 c0                	test   %eax,%eax
   14000106b:	74 43                	je     1400010b0 <pre_c_init+0xa0>
   14000106d:	b9 02 00 00 00       	mov    $0x2,%ecx
   140001072:	e8 b1 6f 00 00       	call   140008028 <__set_app_type>
   140001077:	e8 44 69 00 00       	call   1400079c0 <__p__fmode>
   14000107c:	48 8b 15 1d 99 00 00 	mov    0x991d(%rip),%rdx        # 14000a9a0 <.refptr._fmode>
   140001083:	8b 12                	mov    (%rdx),%edx
   140001085:	89 10                	mov    %edx,(%rax)
   140001087:	e8 44 69 00 00       	call   1400079d0 <__p__commode>
   14000108c:	48 8b 15 ed 98 00 00 	mov    0x98ed(%rip),%rdx        # 14000a980 <.refptr._commode>
   140001093:	8b 12                	mov    (%rdx),%edx
   140001095:	89 10                	mov    %edx,(%rax)
   140001097:	e8 74 0a 00 00       	call   140001b10 <_setargv>
   14000109c:	48 8b 05 8d 97 00 00 	mov    0x978d(%rip),%rax        # 14000a830 <.refptr._MINGW_INSTALL_DEBUG_MATHERR>
   1400010a3:	83 38 01             	cmpl   $0x1,(%rax)
   1400010a6:	74 50                	je     1400010f8 <pre_c_init+0xe8>
   1400010a8:	31 c0                	xor    %eax,%eax
   1400010aa:	48 83 c4 28          	add    $0x28,%rsp
   1400010ae:	c3                   	ret
   1400010af:	90                   	nop
   1400010b0:	b9 01 00 00 00       	mov    $0x1,%ecx
   1400010b5:	e8 6e 6f 00 00       	call   140008028 <__set_app_type>
   1400010ba:	eb bb                	jmp    140001077 <pre_c_init+0x67>
   1400010bc:	0f 1f 40 00          	nopl   0x0(%rax)
   1400010c0:	0f b7 50 18          	movzwl 0x18(%rax),%edx
   1400010c4:	66 81 fa 0b 01       	cmp    $0x10b,%dx
   1400010c9:	74 45                	je     140001110 <pre_c_init+0x100>
   1400010cb:	66 81 fa 0b 02       	cmp    $0x20b,%dx
   1400010d0:	75 88                	jne    14000105a <pre_c_init+0x4a>
   1400010d2:	83 b8 84 00 00 00 0e 	cmpl   $0xe,0x84(%rax)
   1400010d9:	0f 86 7b ff ff ff    	jbe    14000105a <pre_c_init+0x4a>
   1400010df:	8b 90 f8 00 00 00    	mov    0xf8(%rax),%edx
   1400010e5:	31 c9                	xor    %ecx,%ecx
   1400010e7:	85 d2                	test   %edx,%edx
   1400010e9:	0f 95 c1             	setne  %cl
   1400010ec:	e9 69 ff ff ff       	jmp    14000105a <pre_c_init+0x4a>
   1400010f1:	0f 1f 80 00 00 00 00 	nopl   0x0(%rax)
   1400010f8:	48 8b 0d c1 98 00 00 	mov    0x98c1(%rip),%rcx        # 14000a9c0 <.refptr._matherr>
   1400010ff:	e8 7c 11 00 00       	call   140002280 <__mingw_setusermatherr>
   140001104:	31 c0                	xor    %eax,%eax
   140001106:	48 83 c4 28          	add    $0x28,%rsp
   14000110a:	c3                   	ret
   14000110b:	0f 1f 44 00 00       	nopl   0x0(%rax,%rax,1)
   140001110:	83 78 74 0e          	cmpl   $0xe,0x74(%rax)
   140001114:	0f 86 40 ff ff ff    	jbe    14000105a <pre_c_init+0x4a>
   14000111a:	44 8b 80 e8 00 00 00 	mov    0xe8(%rax),%r8d
   140001121:	31 c9                	xor    %ecx,%ecx
   140001123:	45 85 c0             	test   %r8d,%r8d
   140001126:	0f 95 c1             	setne  %cl
   140001129:	e9 2c ff ff ff       	jmp    14000105a <pre_c_init+0x4a>
   14000112e:	66 90                	xchg   %ax,%ax

0000000140001130 <pre_cpp_init>:
   140001130:	48 83 ec 38          	sub    $0x38,%rsp
   140001134:	48 8b 05 95 98 00 00 	mov    0x9895(%rip),%rax        # 14000a9d0 <.refptr._newmode>
   14000113b:	4c 8d 05 d6 ce 00 00 	lea    0xced6(%rip),%r8        # 14000e018 <envp>
   140001142:	48 8d 15 d7 ce 00 00 	lea    0xced7(%rip),%rdx        # 14000e020 <argv>
   140001149:	48 8d 0d d8 ce 00 00 	lea    0xced8(%rip),%rcx        # 14000e028 <argc>
   140001150:	8b 00                	mov    (%rax),%eax
   140001152:	89 05 ac ce 00 00    	mov    %eax,0xceac(%rip)        # 14000e004 <startinfo>
   140001158:	48 8b 05 31 98 00 00 	mov    0x9831(%rip),%rax        # 14000a990 <.refptr._dowildcard>
   14000115f:	44 8b 08             	mov    (%rax),%r9d
   140001162:	48 8d 05 9b ce 00 00 	lea    0xce9b(%rip),%rax        # 14000e004 <startinfo>
   140001169:	48 89 44 24 20       	mov    %rax,0x20(%rsp)
   14000116e:	e8 a5 6e 00 00       	call   140008018 <__getmainargs>
   140001173:	90                   	nop
   140001174:	48 83 c4 38          	add    $0x38,%rsp
   140001178:	c3                   	ret
   140001179:	0f 1f 80 00 00 00 00 	nopl   0x0(%rax)

0000000140001180 <__tmainCRTStartup>:
   140001180:	41 54                	push   %r12
   140001182:	55                   	push   %rbp
   140001183:	57                   	push   %rdi
   140001184:	56                   	push   %rsi
   140001185:	53                   	push   %rbx
   140001186:	48 83 ec 20          	sub    $0x20,%rsp
   14000118a:	48 8b 1d 7f 97 00 00 	mov    0x977f(%rip),%rbx        # 14000a910 <.refptr.__native_startup_lock>
   140001191:	48 8b 2d 70 e0 00 00 	mov    0xe070(%rip),%rbp        # 14000f208 <__imp_Sleep>
   140001198:	31 ff                	xor    %edi,%edi
   14000119a:	65 48 8b 04 25 30 00 	mov    %gs:0x30,%rax
   1400011a1:	00 00 
   1400011a3:	48 8b 70 08          	mov    0x8(%rax),%rsi
   1400011a7:	eb 17                	jmp    1400011c0 <__tmainCRTStartup+0x40>
   1400011a9:	0f 1f 80 00 00 00 00 	nopl   0x0(%rax)
   1400011b0:	48 39 c6             	cmp    %rax,%rsi
   1400011b3:	0f 84 67 01 00 00    	je     140001320 <__tmainCRTStartup+0x1a0>
   1400011b9:	b9 e8 03 00 00       	mov    $0x3e8,%ecx
   1400011be:	ff d5                	call   *%rbp
   1400011c0:	48 89 f8             	mov    %rdi,%rax
   1400011c3:	f0 48 0f b1 33       	lock cmpxchg %rsi,(%rbx)
   1400011c8:	48 85 c0             	test   %rax,%rax
   1400011cb:	75 e3                	jne    1400011b0 <__tmainCRTStartup+0x30>
   1400011cd:	48 8b 35 4c 97 00 00 	mov    0x974c(%rip),%rsi        # 14000a920 <.refptr.__native_startup_state>
   1400011d4:	31 ff                	xor    %edi,%edi
   1400011d6:	8b 06                	mov    (%rsi),%eax
   1400011d8:	83 f8 01             	cmp    $0x1,%eax
   1400011db:	0f 84 56 01 00 00    	je     140001337 <__tmainCRTStartup+0x1b7>
   1400011e1:	8b 06                	mov    (%rsi),%eax
   1400011e3:	85 c0                	test   %eax,%eax
   1400011e5:	0f 84 b5 01 00 00    	je     1400013a0 <__tmainCRTStartup+0x220>
   1400011eb:	c7 05 13 ce 00 00 01 	movl   $0x1,0xce13(%rip)        # 14000e008 <has_cctor>
   1400011f2:	00 00 00 
   1400011f5:	8b 06                	mov    (%rsi),%eax
   1400011f7:	83 f8 01             	cmp    $0x1,%eax
   1400011fa:	0f 84 4c 01 00 00    	je     14000134c <__tmainCRTStartup+0x1cc>
   140001200:	85 ff                	test   %edi,%edi
   140001202:	0f 84 65 01 00 00    	je     14000136d <__tmainCRTStartup+0x1ed>
   140001208:	48 8b 05 61 96 00 00 	mov    0x9661(%rip),%rax        # 14000a870 <.refptr.__dyn_tls_init_callback>
   14000120f:	48 8b 00             	mov    (%rax),%rax
   140001212:	48 85 c0             	test   %rax,%rax
   140001215:	74 0c                	je     140001223 <__tmainCRTStartup+0xa3>
   140001217:	45 31 c0             	xor    %r8d,%r8d
   14000121a:	ba 02 00 00 00       	mov    $0x2,%edx
   14000121f:	31 c9                	xor    %ecx,%ecx
   140001221:	ff d0                	call   *%rax
   140001223:	e8 b8 0c 00 00       	call   140001ee0 <_pei386_runtime_relocator>
   140001228:	48 8b 0d 81 97 00 00 	mov    0x9781(%rip),%rcx        # 14000a9b0 <.refptr._gnu_exception_handler>
   14000122f:	ff 15 cb df 00 00    	call   *0xdfcb(%rip)        # 14000f200 <__imp_SetUnhandledExceptionFilter>
   140001235:	48 8b 15 c4 96 00 00 	mov    0x96c4(%rip),%rdx        # 14000a900 <.refptr.__mingw_oldexcpt_handler>
   14000123c:	48 8d 0d bd fd ff ff 	lea    -0x243(%rip),%rcx        # 140001000 <__mingw_invalidParameterHandler>
   140001243:	48 89 02             	mov    %rax,(%rdx)
   140001246:	e8 75 68 00 00       	call   140007ac0 <_set_invalid_parameter_handler>
   14000124b:	e8 a0 0a 00 00       	call   140001cf0 <_fpreset>
   140001250:	8b 1d d2 cd 00 00    	mov    0xcdd2(%rip),%ebx        # 14000e028 <argc>
   140001256:	8d 7b 01             	lea    0x1(%rbx),%edi
   140001259:	48 63 ff             	movslq %edi,%rdi
   14000125c:	48 c1 e7 03          	shl    $0x3,%rdi
   140001260:	48 89 f9             	mov    %rdi,%rcx
   140001263:	e8 48 6e 00 00       	call   1400080b0 <malloc>
   140001268:	4c 8b 25 b1 cd 00 00 	mov    0xcdb1(%rip),%r12        # 14000e020 <argv>
   14000126f:	48 89 c5             	mov    %rax,%rbp
   140001272:	85 db                	test   %ebx,%ebx
   140001274:	0f 8e 46 01 00 00    	jle    1400013c0 <__tmainCRTStartup+0x240>
   14000127a:	48 83 ef 08          	sub    $0x8,%rdi
   14000127e:	31 db                	xor    %ebx,%ebx
   140001280:	49 8b 0c 1c          	mov    (%r12,%rbx,1),%rcx
   140001284:	e8 4f 6e 00 00       	call   1400080d8 <strlen>
   140001289:	48 8d 70 01          	lea    0x1(%rax),%rsi
   14000128d:	48 89 f1             	mov    %rsi,%rcx
   140001290:	e8 1b 6e 00 00       	call   1400080b0 <malloc>
   140001295:	49 89 f0             	mov    %rsi,%r8
   140001298:	48 89 44 1d 00       	mov    %rax,0x0(%rbp,%rbx,1)
   14000129d:	49 8b 14 1c          	mov    (%r12,%rbx,1),%rdx
   1400012a1:	48 89 c1             	mov    %rax,%rcx
   1400012a4:	48 83 c3 08          	add    $0x8,%rbx
   1400012a8:	e8 0b 6e 00 00       	call   1400080b8 <memcpy>
   1400012ad:	48 39 df             	cmp    %rbx,%rdi
   1400012b0:	75 ce                	jne    140001280 <__tmainCRTStartup+0x100>
   1400012b2:	48 01 ef             	add    %rbp,%rdi
   1400012b5:	48 c7 07 00 00 00 00 	movq   $0x0,(%rdi)
   1400012bc:	48 89 2d 5d cd 00 00 	mov    %rbp,0xcd5d(%rip)        # 14000e020 <argv>
   1400012c3:	e8 28 08 00 00       	call   140001af0 <__main>
   1400012c8:	48 8b 05 c1 95 00 00 	mov    0x95c1(%rip),%rax        # 14000a890 <.refptr.__imp___initenv>
   1400012cf:	4c 8b 05 42 cd 00 00 	mov    0xcd42(%rip),%r8        # 14000e018 <envp>
   1400012d6:	8b 0d 4c cd 00 00    	mov    0xcd4c(%rip),%ecx        # 14000e028 <argc>
   1400012dc:	48 8b 00             	mov    (%rax),%rax
   1400012df:	4c 89 00             	mov    %r8,(%rax)
   1400012e2:	48 8b 15 37 cd 00 00 	mov    0xcd37(%rip),%rdx        # 14000e020 <argv>
   1400012e9:	e8 d4 02 00 00       	call   1400015c2 <main>
   1400012ee:	8b 0d 18 cd 00 00    	mov    0xcd18(%rip),%ecx        # 14000e00c <managedapp>
   1400012f4:	89 05 16 cd 00 00    	mov    %eax,0xcd16(%rip)        # 14000e010 <mainret>
   1400012fa:	85 c9                	test   %ecx,%ecx
   1400012fc:	0f 84 c6 00 00 00    	je     1400013c8 <__tmainCRTStartup+0x248>
   140001302:	8b 15 00 cd 00 00    	mov    0xcd00(%rip),%edx        # 14000e008 <has_cctor>
   140001308:	85 d2                	test   %edx,%edx
   14000130a:	74 74                	je     140001380 <__tmainCRTStartup+0x200>
   14000130c:	48 83 c4 20          	add    $0x20,%rsp
   140001310:	5b                   	pop    %rbx
   140001311:	5e                   	pop    %rsi
   140001312:	5f                   	pop    %rdi
   140001313:	5d                   	pop    %rbp
   140001314:	41 5c                	pop    %r12
   140001316:	c3                   	ret
   140001317:	66 0f 1f 84 00 00 00 	nopw   0x0(%rax,%rax,1)
   14000131e:	00 00 
   140001320:	48 8b 35 f9 95 00 00 	mov    0x95f9(%rip),%rsi        # 14000a920 <.refptr.__native_startup_state>
   140001327:	bf 01 00 00 00       	mov    $0x1,%edi
   14000132c:	8b 06                	mov    (%rsi),%eax
   14000132e:	83 f8 01             	cmp    $0x1,%eax
   140001331:	0f 85 aa fe ff ff    	jne    1400011e1 <__tmainCRTStartup+0x61>
   140001337:	b9 1f 00 00 00       	mov    $0x1f,%ecx
   14000133c:	e8 f7 6c 00 00       	call   140008038 <_amsg_exit>
   140001341:	8b 06                	mov    (%rsi),%eax
   140001343:	83 f8 01             	cmp    $0x1,%eax
   140001346:	0f 85 b4 fe ff ff    	jne    140001200 <__tmainCRTStartup+0x80>
   14000134c:	48 8b 15 fd 95 00 00 	mov    0x95fd(%rip),%rdx        # 14000a950 <.refptr.__xc_z>
   140001353:	48 8b 0d e6 95 00 00 	mov    0x95e6(%rip),%rcx        # 14000a940 <.refptr.__xc_a>
   14000135a:	e8 f1 6c 00 00       	call   140008050 <_initterm>
   14000135f:	c7 06 02 00 00 00    	movl   $0x2,(%rsi)
   140001365:	85 ff                	test   %edi,%edi
   140001367:	0f 85 9b fe ff ff    	jne    140001208 <__tmainCRTStartup+0x88>
   14000136d:	31 c0                	xor    %eax,%eax
   14000136f:	48 87 03             	xchg   %rax,(%rbx)
   140001372:	e9 91 fe ff ff       	jmp    140001208 <__tmainCRTStartup+0x88>
   140001377:	66 0f 1f 84 00 00 00 	nopw   0x0(%rax,%rax,1)
   14000137e:	00 00 
   140001380:	e8 bb 6c 00 00       	call   140008040 <_cexit>
   140001385:	8b 05 85 cc 00 00    	mov    0xcc85(%rip),%eax        # 14000e010 <mainret>
   14000138b:	48 83 c4 20          	add    $0x20,%rsp
   14000138f:	5b                   	pop    %rbx
   140001390:	5e                   	pop    %rsi
   140001391:	5f                   	pop    %rdi
   140001392:	5d                   	pop    %rbp
   140001393:	41 5c                	pop    %r12
   140001395:	c3                   	ret
   140001396:	66 2e 0f 1f 84 00 00 	cs nopw 0x0(%rax,%rax,1)
   14000139d:	00 00 00 
   1400013a0:	48 8b 15 c9 95 00 00 	mov    0x95c9(%rip),%rdx        # 14000a970 <.refptr.__xi_z>
   1400013a7:	48 8b 0d b2 95 00 00 	mov    0x95b2(%rip),%rcx        # 14000a960 <.refptr.__xi_a>
   1400013ae:	c7 06 01 00 00 00    	movl   $0x1,(%rsi)
   1400013b4:	e8 97 6c 00 00       	call   140008050 <_initterm>
   1400013b9:	e9 37 fe ff ff       	jmp    1400011f5 <__tmainCRTStartup+0x75>
   1400013be:	66 90                	xchg   %ax,%ax
   1400013c0:	48 89 c7             	mov    %rax,%rdi
   1400013c3:	e9 ed fe ff ff       	jmp    1400012b5 <__tmainCRTStartup+0x135>
   1400013c8:	89 c1                	mov    %eax,%ecx
   1400013ca:	e8 b1 6c 00 00       	call   140008080 <exit>
   1400013cf:	90                   	nop

00000001400013d0 <WinMainCRTStartup>:
   1400013d0:	48 83 ec 28          	sub    $0x28,%rsp

00000001400013d4 <.l_startw>:
   1400013d4:	48 8b 05 e5 94 00 00 	mov    0x94e5(%rip),%rax        # 14000a8c0 <.refptr.__mingw_app_type>
   1400013db:	c7 00 01 00 00 00    	movl   $0x1,(%rax)
   1400013e1:	e8 9a fd ff ff       	call   140001180 <__tmainCRTStartup>
   1400013e6:	90                   	nop

00000001400013e7 <.l_endw>:
   1400013e7:	90                   	nop
   1400013e8:	48 83 c4 28          	add    $0x28,%rsp
   1400013ec:	c3                   	ret
   1400013ed:	0f 1f 00             	nopl   (%rax)

00000001400013f0 <mainCRTStartup>:
   1400013f0:	48 83 ec 28          	sub    $0x28,%rsp

00000001400013f4 <.l_start>:
   1400013f4:	48 8b 05 c5 94 00 00 	mov    0x94c5(%rip),%rax        # 14000a8c0 <.refptr.__mingw_app_type>
   1400013fb:	c7 00 00 00 00 00    	movl   $0x0,(%rax)
   140001401:	e8 7a fd ff ff       	call   140001180 <__tmainCRTStartup>
   140001406:	90                   	nop

0000000140001407 <.l_end>:
   140001407:	90                   	nop
   140001408:	48 83 c4 28          	add    $0x28,%rsp
   14000140c:	c3                   	ret
   14000140d:	0f 1f 00             	nopl   (%rax)

0000000140001410 <atexit>:
   140001410:	48 83 ec 28          	sub    $0x28,%rsp
   140001414:	e8 47 6c 00 00       	call   140008060 <_onexit>
   140001419:	48 83 f8 01          	cmp    $0x1,%rax
   14000141d:	19 c0                	sbb    %eax,%eax
   14000141f:	48 83 c4 28          	add    $0x28,%rsp
   140001423:	c3                   	ret
   140001424:	90                   	nop
   140001425:	90                   	nop
   140001426:	90                   	nop
   140001427:	90                   	nop
   140001428:	90                   	nop
   140001429:	90                   	nop
   14000142a:	90                   	nop
   14000142b:	90                   	nop
   14000142c:	90                   	nop
   14000142d:	90                   	nop
   14000142e:	90                   	nop
   14000142f:	90                   	nop

0000000140001430 <__gcc_register_frame>:
   140001430:	48 8d 0d 09 00 00 00 	lea    0x9(%rip),%rcx        # 140001440 <__gcc_deregister_frame>
   140001437:	e9 d4 ff ff ff       	jmp    140001410 <atexit>
   14000143c:	0f 1f 40 00          	nopl   0x0(%rax)

0000000140001440 <__gcc_deregister_frame>:
   140001440:	c3                   	ret
   140001441:	90                   	nop
   140001442:	90                   	nop
   140001443:	90                   	nop
   140001444:	90                   	nop
   140001445:	90                   	nop
   140001446:	90                   	nop
   140001447:	90                   	nop
   140001448:	90                   	nop
   140001449:	90                   	nop
   14000144a:	90                   	nop
   14000144b:	90                   	nop
   14000144c:	90                   	nop
   14000144d:	90                   	nop
   14000144e:	90                   	nop
   14000144f:	90                   	nop

0000000140001450 <fprintf>:
   140001450:	55                   	push   %rbp
   140001451:	48 89 e5             	mov    %rsp,%rbp
   140001454:	48 83 ec 30          	sub    $0x30,%rsp
   140001458:	48 89 4d 10          	mov    %rcx,0x10(%rbp)
   14000145c:	48 89 55 18          	mov    %rdx,0x18(%rbp)
   140001460:	4c 89 45 20          	mov    %r8,0x20(%rbp)
   140001464:	4c 89 4d 28          	mov    %r9,0x28(%rbp)
   140001468:	48 8d 45 20          	lea    0x20(%rbp),%rax
   14000146c:	48 89 45 f0          	mov    %rax,-0x10(%rbp)
   140001470:	48 8b 4d f0          	mov    -0x10(%rbp),%rcx
   140001474:	48 8b 55 18          	mov    0x18(%rbp),%rdx
   140001478:	48 8b 45 10          	mov    0x10(%rbp),%rax
   14000147c:	49 89 c8             	mov    %rcx,%r8
   14000147f:	48 89 c1             	mov    %rax,%rcx
   140001482:	e8 59 16 00 00       	call   140002ae0 <__mingw_vfprintf>
   140001487:	89 45 fc             	mov    %eax,-0x4(%rbp)
   14000148a:	8b 45 fc             	mov    -0x4(%rbp),%eax
   14000148d:	48 83 c4 30          	add    $0x30,%rsp
   140001491:	5d                   	pop    %rbp
   140001492:	c3                   	ret

0000000140001493 <printf>:
   140001493:	55                   	push   %rbp
   140001494:	53                   	push   %rbx
   140001495:	48 83 ec 38          	sub    $0x38,%rsp
   140001499:	48 8d 6c 24 30       	lea    0x30(%rsp),%rbp
   14000149e:	48 89 4d 20          	mov    %rcx,0x20(%rbp)
   1400014a2:	48 89 55 28          	mov    %rdx,0x28(%rbp)
   1400014a6:	4c 89 45 30          	mov    %r8,0x30(%rbp)
   1400014aa:	4c 89 4d 38          	mov    %r9,0x38(%rbp)
   1400014ae:	48 8d 45 28          	lea    0x28(%rbp),%rax
   1400014b2:	48 89 45 f0          	mov    %rax,-0x10(%rbp)
   1400014b6:	48 8b 5d f0          	mov    -0x10(%rbp),%rbx
   1400014ba:	b9 01 00 00 00       	mov    $0x1,%ecx
   1400014bf:	48 8b 05 fa 7b 00 00 	mov    0x7bfa(%rip),%rax        # 1400090c0 <__imp___acrt_iob_func>
   1400014c6:	ff d0                	call   *%rax
   1400014c8:	48 89 c1             	mov    %rax,%rcx
   1400014cb:	48 8b 45 20          	mov    0x20(%rbp),%rax
   1400014cf:	49 89 d8             	mov    %rbx,%r8
   1400014d2:	48 89 c2             	mov    %rax,%rdx
   1400014d5:	e8 06 16 00 00       	call   140002ae0 <__mingw_vfprintf>
   1400014da:	89 45 fc             	mov    %eax,-0x4(%rbp)
   1400014dd:	8b 45 fc             	mov    -0x4(%rbp),%eax
   1400014e0:	48 83 c4 38          	add    $0x38,%rsp
   1400014e4:	5b                   	pop    %rbx
   1400014e5:	5d                   	pop    %rbp
   1400014e6:	c3                   	ret

00000001400014e7 <snprintf>:
   1400014e7:	55                   	push   %rbp
   1400014e8:	48 89 e5             	mov    %rsp,%rbp
   1400014eb:	48 83 ec 30          	sub    $0x30,%rsp
   1400014ef:	48 89 4d 10          	mov    %rcx,0x10(%rbp)
   1400014f3:	48 89 55 18          	mov    %rdx,0x18(%rbp)
   1400014f7:	4c 89 45 20          	mov    %r8,0x20(%rbp)
   1400014fb:	4c 89 4d 28          	mov    %r9,0x28(%rbp)
   1400014ff:	48 8d 45 28          	lea    0x28(%rbp),%rax
   140001503:	48 89 45 f0          	mov    %rax,-0x10(%rbp)
   140001507:	4c 8b 45 f0          	mov    -0x10(%rbp),%r8
   14000150b:	48 8b 4d 20          	mov    0x20(%rbp),%rcx
   14000150f:	48 8b 55 18          	mov    0x18(%rbp),%rdx
   140001513:	48 8b 45 10          	mov    0x10(%rbp),%rax
   140001517:	4d 89 c1             	mov    %r8,%r9
   14000151a:	49 89 c8             	mov    %rcx,%r8
   14000151d:	48 89 c1             	mov    %rax,%rcx
   140001520:	e8 0b 16 00 00       	call   140002b30 <__mingw_vsnprintf>
   140001525:	89 45 fc             	mov    %eax,-0x4(%rbp)
   140001528:	8b 45 fc             	mov    -0x4(%rbp),%eax
   14000152b:	48 83 c4 30          	add    $0x30,%rsp
   14000152f:	5d                   	pop    %rbp
   140001530:	c3                   	ret

0000000140001531 <printComputerArray>:
   140001531:	55                   	push   %rbp
   140001532:	48 89 e5             	mov    %rsp,%rbp
   140001535:	48 83 ec 40          	sub    $0x40,%rsp
   140001539:	48 89 4d 10          	mov    %rcx,0x10(%rbp)
   14000153d:	89 55 18             	mov    %edx,0x18(%rbp)
   140001540:	c7 45 fc 00 00 00 00 	movl   $0x0,-0x4(%rbp)
   140001547:	eb 69                	jmp    1400015b2 <printComputerArray+0x81>
   140001549:	8b 45 fc             	mov    -0x4(%rbp),%eax
   14000154c:	48 98                	cltq
   14000154e:	48 69 d0 8c 00 00 00 	imul   $0x8c,%rax,%rdx
   140001555:	48 8b 45 10          	mov    0x10(%rbp),%rax
   140001559:	48 01 d0             	add    %rdx,%rax
   14000155c:	48 8d 50 40          	lea    0x40(%rax),%rdx
   140001560:	8b 45 fc             	mov    -0x4(%rbp),%eax
   140001563:	48 98                	cltq
   140001565:	48 69 c8 8c 00 00 00 	imul   $0x8c,%rax,%rcx
   14000156c:	48 8b 45 10          	mov    0x10(%rbp),%rax
   140001570:	48 01 c8             	add    %rcx,%rax
   140001573:	49 89 c0             	mov    %rax,%r8
   140001576:	8b 45 fc             	mov    -0x4(%rbp),%eax
   140001579:	48 98                	cltq
   14000157b:	48 69 c8 8c 00 00 00 	imul   $0x8c,%rax,%rcx
   140001582:	48 8b 45 10          	mov    0x10(%rbp),%rax
   140001586:	48 01 c8             	add    %rcx,%rax
   140001589:	8b 88 84 00 00 00    	mov    0x84(%rax),%ecx
   14000158f:	8b 45 fc             	mov    -0x4(%rbp),%eax
   140001592:	48 89 54 24 20       	mov    %rdx,0x20(%rsp)
   140001597:	4d 89 c1             	mov    %r8,%r9
   14000159a:	41 89 c8             	mov    %ecx,%r8d
   14000159d:	89 c2                	mov    %eax,%edx
   14000159f:	48 8d 05 5a 8a 00 00 	lea    0x8a5a(%rip),%rax        # 14000a000 <.rdata>
   1400015a6:	48 89 c1             	mov    %rax,%rcx
   1400015a9:	e8 e5 fe ff ff       	call   140001493 <printf>
   1400015ae:	83 45 fc 01          	addl   $0x1,-0x4(%rbp)
   1400015b2:	8b 45 fc             	mov    -0x4(%rbp),%eax
   1400015b5:	3b 45 18             	cmp    0x18(%rbp),%eax
   1400015b8:	7c 8f                	jl     140001549 <printComputerArray+0x18>
   1400015ba:	90                   	nop
   1400015bb:	90                   	nop
   1400015bc:	48 83 c4 40          	add    $0x40,%rsp
   1400015c0:	5d                   	pop    %rbp
   1400015c1:	c3                   	ret

00000001400015c2 <main>:
   1400015c2:	55                   	push   %rbp
   1400015c3:	48 89 e5             	mov    %rsp,%rbp
   1400015c6:	48 81 ec c0 00 00 00 	sub    $0xc0,%rsp
   1400015cd:	e8 1e 05 00 00       	call   140001af0 <__main>
   1400015d2:	c7 45 f8 05 00 00 00 	movl   $0x5,-0x8(%rbp)
   1400015d9:	8b 45 f8             	mov    -0x8(%rbp),%eax
   1400015dc:	ba 8c 00 00 00       	mov    $0x8c,%edx
   1400015e1:	89 c1                	mov    %eax,%ecx
   1400015e3:	e8 cb 01 00 00       	call   1400017b3 <makeArray>
   1400015e8:	48 89 45 f0          	mov    %rax,-0x10(%rbp)
   1400015ec:	48 83 7d f0 00       	cmpq   $0x0,-0x10(%rbp)
   1400015f1:	75 2a                	jne    14000161d <main+0x5b>
   1400015f3:	b9 02 00 00 00       	mov    $0x2,%ecx
   1400015f8:	48 8b 05 c1 7a 00 00 	mov    0x7ac1(%rip),%rax        # 1400090c0 <__imp___acrt_iob_func>
   1400015ff:	ff d0                	call   *%rax
   140001601:	48 89 c1             	mov    %rax,%rcx
   140001604:	48 8d 05 2d 8a 00 00 	lea    0x8a2d(%rip),%rax        # 14000a038 <.rdata+0x38>
   14000160b:	48 89 c2             	mov    %rax,%rdx
   14000160e:	e8 3d fe ff ff       	call   140001450 <fprintf>
   140001613:	b8 01 00 00 00       	mov    $0x1,%eax
   140001618:	e9 3e 01 00 00       	jmp    14000175b <main+0x199>
   14000161d:	c7 45 fc 00 00 00 00 	movl   $0x0,-0x4(%rbp)
   140001624:	e9 84 00 00 00       	jmp    1400016ad <main+0xeb>
   140001629:	8b 45 fc             	mov    -0x4(%rbp),%eax
   14000162c:	6b d0 32             	imul   $0x32,%eax,%edx
   14000162f:	8b 45 fc             	mov    -0x4(%rbp),%eax
   140001632:	48 98                	cltq
   140001634:	48 69 c8 8c 00 00 00 	imul   $0x8c,%rax,%rcx
   14000163b:	48 8b 45 f0          	mov    -0x10(%rbp),%rax
   14000163f:	48 01 c8             	add    %rcx,%rax
   140001642:	83 c2 64             	add    $0x64,%edx
   140001645:	89 90 84 00 00 00    	mov    %edx,0x84(%rax)
   14000164b:	8b 45 fc             	mov    -0x4(%rbp),%eax
   14000164e:	48 98                	cltq
   140001650:	48 69 d0 8c 00 00 00 	imul   $0x8c,%rax,%rdx
   140001657:	48 8b 45 f0          	mov    -0x10(%rbp),%rax
   14000165b:	48 01 d0             	add    %rdx,%rax
   14000165e:	48 89 c1             	mov    %rax,%rcx
   140001661:	8b 45 fc             	mov    -0x4(%rbp),%eax
   140001664:	41 89 c1             	mov    %eax,%r9d
   140001667:	4c 8d 05 fa 89 00 00 	lea    0x89fa(%rip),%r8        # 14000a068 <.rdata+0x68>
   14000166e:	ba 40 00 00 00       	mov    $0x40,%edx
   140001673:	e8 6f fe ff ff       	call   1400014e7 <snprintf>
   140001678:	8b 45 fc             	mov    -0x4(%rbp),%eax
   14000167b:	48 98                	cltq
   14000167d:	48 69 d0 8c 00 00 00 	imul   $0x8c,%rax,%rdx
   140001684:	48 8b 45 f0          	mov    -0x10(%rbp),%rax
   140001688:	48 01 d0             	add    %rdx,%rax
   14000168b:	48 83 c0 40          	add    $0x40,%rax
   14000168f:	8b 55 fc             	mov    -0x4(%rbp),%edx
   140001692:	41 89 d1             	mov    %edx,%r9d
   140001695:	4c 8d 05 d6 89 00 00 	lea    0x89d6(%rip),%r8        # 14000a072 <.rdata+0x72>
   14000169c:	ba 40 00 00 00       	mov    $0x40,%edx
   1400016a1:	48 89 c1             	mov    %rax,%rcx
   1400016a4:	e8 3e fe ff ff       	call   1400014e7 <snprintf>
   1400016a9:	83 45 fc 01          	addl   $0x1,-0x4(%rbp)
   1400016ad:	8b 45 fc             	mov    -0x4(%rbp),%eax
   1400016b0:	3b 45 f8             	cmp    -0x8(%rbp),%eax
   1400016b3:	0f 8c 70 ff ff ff    	jl     140001629 <main+0x67>
   1400016b9:	8b 55 f8             	mov    -0x8(%rbp),%edx
   1400016bc:	48 8b 45 f0          	mov    -0x10(%rbp),%rax
   1400016c0:	48 89 c1             	mov    %rax,%rcx
   1400016c3:	e8 69 fe ff ff       	call   140001531 <printComputerArray>
   1400016c8:	c7 45 e4 c8 00 00 00 	movl   $0xc8,-0x1c(%rbp)
   1400016cf:	48 8d 85 60 ff ff ff 	lea    -0xa0(%rbp),%rax
   1400016d6:	4c 8d 05 9d 89 00 00 	lea    0x899d(%rip),%r8        # 14000a07a <.rdata+0x7a>
   1400016dd:	ba 40 00 00 00       	mov    $0x40,%edx
   1400016e2:	48 89 c1             	mov    %rax,%rcx
   1400016e5:	e8 fd fd ff ff       	call   1400014e7 <snprintf>
   1400016ea:	48 8d 85 60 ff ff ff 	lea    -0xa0(%rbp),%rax
   1400016f1:	48 83 c0 40          	add    $0x40,%rax
   1400016f5:	4c 8d 05 87 89 00 00 	lea    0x8987(%rip),%r8        # 14000a083 <.rdata+0x83>
   1400016fc:	ba 40 00 00 00       	mov    $0x40,%edx
   140001701:	48 89 c1             	mov    %rax,%rcx
   140001704:	e8 de fd ff ff       	call   1400014e7 <snprintf>
   140001709:	48 8d 95 60 ff ff ff 	lea    -0xa0(%rbp),%rdx
   140001710:	48 8b 45 f0          	mov    -0x10(%rbp),%rax
   140001714:	48 89 c1             	mov    %rax,%rcx
   140001717:	e8 01 02 00 00       	call   14000191d <searchComputersByDiskSize>
   14000171c:	89 45 ec             	mov    %eax,-0x14(%rbp)
   14000171f:	83 7d ec ff          	cmpl   $0xffffffff,-0x14(%rbp)
   140001723:	74 16                	je     14000173b <main+0x179>
   140001725:	8b 45 ec             	mov    -0x14(%rbp),%eax
   140001728:	89 c2                	mov    %eax,%edx
   14000172a:	48 8d 05 5f 89 00 00 	lea    0x895f(%rip),%rax        # 14000a090 <.rdata+0x90>
   140001731:	48 89 c1             	mov    %rax,%rcx
   140001734:	e8 5a fd ff ff       	call   140001493 <printf>
   140001739:	eb 0f                	jmp    14000174a <main+0x188>
   14000173b:	48 8d 05 71 89 00 00 	lea    0x8971(%rip),%rax        # 14000a0b3 <.rdata+0xb3>
   140001742:	48 89 c1             	mov    %rax,%rcx
   140001745:	e8 49 fd ff ff       	call   140001493 <printf>
   14000174a:	48 8b 45 f0          	mov    -0x10(%rbp),%rax
   14000174e:	48 89 c1             	mov    %rax,%rcx
   140001751:	e8 99 02 00 00       	call   1400019ef <freeArray>
   140001756:	b8 00 00 00 00       	mov    $0x0,%eax
   14000175b:	48 81 c4 c0 00 00 00 	add    $0xc0,%rsp
   140001762:	5d                   	pop    %rbp
   140001763:	c3                   	ret
   140001764:	90                   	nop
   140001765:	90                   	nop
   140001766:	90                   	nop
   140001767:	90                   	nop
   140001768:	90                   	nop
   140001769:	90                   	nop
   14000176a:	90                   	nop
   14000176b:	90                   	nop
   14000176c:	90                   	nop
   14000176d:	90                   	nop
   14000176e:	90                   	nop
   14000176f:	90                   	nop

0000000140001770 <fprintf>:
   140001770:	55                   	push   %rbp
   140001771:	48 89 e5             	mov    %rsp,%rbp
   140001774:	48 83 ec 30          	sub    $0x30,%rsp
   140001778:	48 89 4d 10          	mov    %rcx,0x10(%rbp)
   14000177c:	48 89 55 18          	mov    %rdx,0x18(%rbp)
   140001780:	4c 89 45 20          	mov    %r8,0x20(%rbp)
   140001784:	4c 89 4d 28          	mov    %r9,0x28(%rbp)
   140001788:	48 8d 45 20          	lea    0x20(%rbp),%rax
   14000178c:	48 89 45 f0          	mov    %rax,-0x10(%rbp)
   140001790:	48 8b 4d f0          	mov    -0x10(%rbp),%rcx
   140001794:	48 8b 55 18          	mov    0x18(%rbp),%rdx
   140001798:	48 8b 45 10          	mov    0x10(%rbp),%rax
   14000179c:	49 89 c8             	mov    %rcx,%r8
   14000179f:	48 89 c1             	mov    %rax,%rcx
   1400017a2:	e8 39 13 00 00       	call   140002ae0 <__mingw_vfprintf>
   1400017a7:	89 45 fc             	mov    %eax,-0x4(%rbp)
   1400017aa:	8b 45 fc             	mov    -0x4(%rbp),%eax
   1400017ad:	48 83 c4 30          	add    $0x30,%rsp
   1400017b1:	5d                   	pop    %rbp
   1400017b2:	c3                   	ret

00000001400017b3 <makeArray>:
   1400017b3:	55                   	push   %rbp
   1400017b4:	48 89 e5             	mov    %rsp,%rbp
   1400017b7:	48 83 ec 30          	sub    $0x30,%rsp
   1400017bb:	89 4d 10             	mov    %ecx,0x10(%rbp)
   1400017be:	89 55 18             	mov    %edx,0x18(%rbp)
   1400017c1:	8b 45 10             	mov    0x10(%rbp),%eax
   1400017c4:	0f af 45 18          	imul   0x18(%rbp),%eax
   1400017c8:	48 98                	cltq
   1400017ca:	48 83 c0 04          	add    $0x4,%rax
   1400017ce:	48 89 c1             	mov    %rax,%rcx
   1400017d1:	e8 da 68 00 00       	call   1400080b0 <malloc>
   1400017d6:	48 89 45 f8          	mov    %rax,-0x8(%rbp)
   1400017da:	48 83 7d f8 00       	cmpq   $0x0,-0x8(%rbp)
   1400017df:	75 27                	jne    140001808 <makeArray+0x55>
   1400017e1:	b9 02 00 00 00       	mov    $0x2,%ecx
   1400017e6:	48 8b 05 d3 78 00 00 	mov    0x78d3(%rip),%rax        # 1400090c0 <__imp___acrt_iob_func>
   1400017ed:	ff d0                	call   *%rax
   1400017ef:	48 89 c1             	mov    %rax,%rcx
   1400017f2:	48 8d 05 d7 88 00 00 	lea    0x88d7(%rip),%rax        # 14000a0d0 <.rdata>
   1400017f9:	48 89 c2             	mov    %rax,%rdx
   1400017fc:	e8 6f ff ff ff       	call   140001770 <fprintf>
   140001801:	b8 00 00 00 00       	mov    $0x0,%eax
   140001806:	eb 11                	jmp    140001819 <makeArray+0x66>
   140001808:	48 8b 45 f8          	mov    -0x8(%rbp),%rax
   14000180c:	8b 55 10             	mov    0x10(%rbp),%edx
   14000180f:	89 10                	mov    %edx,(%rax)
   140001811:	48 8b 45 f8          	mov    -0x8(%rbp),%rax
   140001815:	48 83 c0 01          	add    $0x1,%rax
   140001819:	48 83 c4 30          	add    $0x30,%rsp
   14000181d:	5d                   	pop    %rbp
   14000181e:	c3                   	ret

000000014000181f <getSize>:
   14000181f:	55                   	push   %rbp
   140001820:	48 89 e5             	mov    %rsp,%rbp
   140001823:	48 83 ec 20          	sub    $0x20,%rsp
   140001827:	48 89 4d 10          	mov    %rcx,0x10(%rbp)
   14000182b:	48 83 7d 10 00       	cmpq   $0x0,0x10(%rbp)
   140001830:	75 27                	jne    140001859 <getSize+0x3a>
   140001832:	b9 02 00 00 00       	mov    $0x2,%ecx
   140001837:	48 8b 05 82 78 00 00 	mov    0x7882(%rip),%rax        # 1400090c0 <__imp___acrt_iob_func>
   14000183e:	ff d0                	call   *%rax
   140001840:	48 89 c1             	mov    %rax,%rcx
   140001843:	48 8d 05 a1 88 00 00 	lea    0x88a1(%rip),%rax        # 14000a0eb <.rdata+0x1b>
   14000184a:	48 89 c2             	mov    %rax,%rdx
   14000184d:	e8 1e ff ff ff       	call   140001770 <fprintf>
   140001852:	b8 ff ff ff ff       	mov    $0xffffffff,%eax
   140001857:	eb 07                	jmp    140001860 <getSize+0x41>
   140001859:	48 8b 45 10          	mov    0x10(%rbp),%rax
   14000185d:	8b 40 ff             	mov    -0x1(%rax),%eax
   140001860:	48 83 c4 20          	add    $0x20,%rsp
   140001864:	5d                   	pop    %rbp
   140001865:	c3                   	ret

0000000140001866 <SearchComputersByDiskSizeHelper>:
   140001866:	55                   	push   %rbp
   140001867:	48 89 e5             	mov    %rsp,%rbp
   14000186a:	48 83 ec 30          	sub    $0x30,%rsp
   14000186e:	48 89 4d 10          	mov    %rcx,0x10(%rbp)
   140001872:	48 89 55 18          	mov    %rdx,0x18(%rbp)
   140001876:	44 89 45 20          	mov    %r8d,0x20(%rbp)
   14000187a:	44 89 4d 28          	mov    %r9d,0x28(%rbp)
   14000187e:	8b 45 20             	mov    0x20(%rbp),%eax
   140001881:	3b 45 28             	cmp    0x28(%rbp),%eax
   140001884:	7e 0a                	jle    140001890 <SearchComputersByDiskSizeHelper+0x2a>
   140001886:	b8 ff ff ff ff       	mov    $0xffffffff,%eax
   14000188b:	e9 87 00 00 00       	jmp    140001917 <SearchComputersByDiskSizeHelper+0xb1>
   140001890:	8b 55 20             	mov    0x20(%rbp),%edx
   140001893:	8b 45 28             	mov    0x28(%rbp),%eax
   140001896:	01 d0                	add    %edx,%eax
   140001898:	89 c2                	mov    %eax,%edx
   14000189a:	c1 ea 1f             	shr    $0x1f,%edx
   14000189d:	01 d0                	add    %edx,%eax
   14000189f:	d1 f8                	sar    %eax
   1400018a1:	89 45 fc             	mov    %eax,-0x4(%rbp)
   1400018a4:	8b 45 fc             	mov    -0x4(%rbp),%eax
   1400018a7:	48 98                	cltq
   1400018a9:	48 69 d0 8c 00 00 00 	imul   $0x8c,%rax,%rdx
   1400018b0:	48 8b 45 10          	mov    0x10(%rbp),%rax
   1400018b4:	48 8d 0c 02          	lea    (%rdx,%rax,1),%rcx
   1400018b8:	48 8b 45 18          	mov    0x18(%rbp),%rax
   1400018bc:	48 89 c2             	mov    %rax,%rdx
   1400018bf:	e8 9d 00 00 00       	call   140001961 <compareComputersByDiskSize>
   1400018c4:	89 45 f8             	mov    %eax,-0x8(%rbp)
   1400018c7:	83 7d f8 00          	cmpl   $0x0,-0x8(%rbp)
   1400018cb:	75 05                	jne    1400018d2 <SearchComputersByDiskSizeHelper+0x6c>
   1400018cd:	8b 45 fc             	mov    -0x4(%rbp),%eax
   1400018d0:	eb 45                	jmp    140001917 <SearchComputersByDiskSizeHelper+0xb1>
   1400018d2:	83 7d f8 00          	cmpl   $0x0,-0x8(%rbp)
   1400018d6:	79 1f                	jns    1400018f7 <SearchComputersByDiskSizeHelper+0x91>
   1400018d8:	8b 45 fc             	mov    -0x4(%rbp),%eax
   1400018db:	44 8d 40 01          	lea    0x1(%rax),%r8d
   1400018df:	8b 4d 28             	mov    0x28(%rbp),%ecx
   1400018e2:	48 8b 55 18          	mov    0x18(%rbp),%rdx
   1400018e6:	48 8b 45 10          	mov    0x10(%rbp),%rax
   1400018ea:	41 89 c9             	mov    %ecx,%r9d
   1400018ed:	48 89 c1             	mov    %rax,%rcx
   1400018f0:	e8 71 ff ff ff       	call   140001866 <SearchComputersByDiskSizeHelper>
   1400018f5:	eb 20                	jmp    140001917 <SearchComputersByDiskSizeHelper+0xb1>
   1400018f7:	8b 45 fc             	mov    -0x4(%rbp),%eax
   1400018fa:	44 8d 40 ff          	lea    -0x1(%rax),%r8d
   1400018fe:	8b 4d 20             	mov    0x20(%rbp),%ecx
   140001901:	48 8b 55 18          	mov    0x18(%rbp),%rdx
   140001905:	48 8b 45 10          	mov    0x10(%rbp),%rax
   140001909:	45 89 c1             	mov    %r8d,%r9d
   14000190c:	41 89 c8             	mov    %ecx,%r8d
   14000190f:	48 89 c1             	mov    %rax,%rcx
   140001912:	e8 4f ff ff ff       	call   140001866 <SearchComputersByDiskSizeHelper>
   140001917:	48 83 c4 30          	add    $0x30,%rsp
   14000191b:	5d                   	pop    %rbp
   14000191c:	c3                   	ret

000000014000191d <searchComputersByDiskSize>:
   14000191d:	55                   	push   %rbp
   14000191e:	48 89 e5             	mov    %rsp,%rbp
   140001921:	48 83 ec 30          	sub    $0x30,%rsp
   140001925:	48 89 4d 10          	mov    %rcx,0x10(%rbp)
   140001929:	48 89 55 18          	mov    %rdx,0x18(%rbp)
   14000192d:	48 8b 45 10          	mov    0x10(%rbp),%rax
   140001931:	48 89 c1             	mov    %rax,%rcx
   140001934:	e8 e6 fe ff ff       	call   14000181f <getSize>
   140001939:	89 45 fc             	mov    %eax,-0x4(%rbp)
   14000193c:	8b 45 fc             	mov    -0x4(%rbp),%eax
   14000193f:	8d 48 ff             	lea    -0x1(%rax),%ecx
   140001942:	48 8b 55 18          	mov    0x18(%rbp),%rdx
   140001946:	48 8b 45 10          	mov    0x10(%rbp),%rax
   14000194a:	41 89 c9             	mov    %ecx,%r9d
   14000194d:	41 b8 00 00 00 00    	mov    $0x0,%r8d
   140001953:	48 89 c1             	mov    %rax,%rcx
   140001956:	e8 0b ff ff ff       	call   140001866 <SearchComputersByDiskSizeHelper>
   14000195b:	48 83 c4 30          	add    $0x30,%rsp
   14000195f:	5d                   	pop    %rbp
   140001960:	c3                   	ret

0000000140001961 <compareComputersByDiskSize>:
   140001961:	55                   	push   %rbp
   140001962:	48 89 e5             	mov    %rsp,%rbp
   140001965:	48 83 ec 20          	sub    $0x20,%rsp
   140001969:	48 89 4d 10          	mov    %rcx,0x10(%rbp)
   14000196d:	48 89 55 18          	mov    %rdx,0x18(%rbp)
   140001971:	48 83 7d 10 00       	cmpq   $0x0,0x10(%rbp)
   140001976:	75 07                	jne    14000197f <compareComputersByDiskSize+0x1e>
   140001978:	48 83 7d 18 00       	cmpq   $0x0,0x18(%rbp)
   14000197d:	75 27                	jne    1400019a6 <compareComputersByDiskSize+0x45>
   14000197f:	b9 02 00 00 00       	mov    $0x2,%ecx
   140001984:	48 8b 05 35 77 00 00 	mov    0x7735(%rip),%rax        # 1400090c0 <__imp___acrt_iob_func>
   14000198b:	ff d0                	call   *%rax
   14000198d:	48 89 c1             	mov    %rax,%rcx
   140001990:	48 8d 05 71 87 00 00 	lea    0x8771(%rip),%rax        # 14000a108 <.rdata+0x38>
   140001997:	48 89 c2             	mov    %rax,%rdx
   14000199a:	e8 d1 fd ff ff       	call   140001770 <fprintf>
   14000199f:	b8 02 00 00 00       	mov    $0x2,%eax
   1400019a4:	eb 43                	jmp    1400019e9 <compareComputersByDiskSize+0x88>
   1400019a6:	48 8b 45 10          	mov    0x10(%rbp),%rax
   1400019aa:	8b 90 84 00 00 00    	mov    0x84(%rax),%edx
   1400019b0:	48 8b 45 18          	mov    0x18(%rbp),%rax
   1400019b4:	8b 80 84 00 00 00    	mov    0x84(%rax),%eax
   1400019ba:	39 c2                	cmp    %eax,%edx
   1400019bc:	7d 07                	jge    1400019c5 <compareComputersByDiskSize+0x64>
   1400019be:	b8 ff ff ff ff       	mov    $0xffffffff,%eax
   1400019c3:	eb 24                	jmp    1400019e9 <compareComputersByDiskSize+0x88>
   1400019c5:	48 8b 45 10          	mov    0x10(%rbp),%rax
   1400019c9:	8b 90 84 00 00 00    	mov    0x84(%rax),%edx
   1400019cf:	48 8b 45 18          	mov    0x18(%rbp),%rax
   1400019d3:	8b 80 84 00 00 00    	mov    0x84(%rax),%eax
   1400019d9:	39 c2                	cmp    %eax,%edx
   1400019db:	7e 07                	jle    1400019e4 <compareComputersByDiskSize+0x83>
   1400019dd:	b8 01 00 00 00       	mov    $0x1,%eax
   1400019e2:	eb 05                	jmp    1400019e9 <compareComputersByDiskSize+0x88>
   1400019e4:	b8 00 00 00 00       	mov    $0x0,%eax
   1400019e9:	48 83 c4 20          	add    $0x20,%rsp
   1400019ed:	5d                   	pop    %rbp
   1400019ee:	c3                   	ret

00000001400019ef <freeArray>:
   1400019ef:	55                   	push   %rbp
   1400019f0:	48 89 e5             	mov    %rsp,%rbp
   1400019f3:	48 83 ec 20          	sub    $0x20,%rsp
   1400019f7:	48 89 4d 10          	mov    %rcx,0x10(%rbp)
   1400019fb:	48 83 7d 10 00       	cmpq   $0x0,0x10(%rbp)
   140001a00:	75 22                	jne    140001a24 <freeArray+0x35>
   140001a02:	b9 02 00 00 00       	mov    $0x2,%ecx
   140001a07:	48 8b 05 b2 76 00 00 	mov    0x76b2(%rip),%rax        # 1400090c0 <__imp___acrt_iob_func>
   140001a0e:	ff d0                	call   *%rax
   140001a10:	48 89 c1             	mov    %rax,%rcx
   140001a13:	48 8d 05 1d 87 00 00 	lea    0x871d(%rip),%rax        # 14000a137 <.rdata+0x67>
   140001a1a:	48 89 c2             	mov    %rax,%rdx
   140001a1d:	e8 4e fd ff ff       	call   140001770 <fprintf>
   140001a22:	eb 11                	jmp    140001a35 <freeArray+0x46>
   140001a24:	48 8b 45 10          	mov    0x10(%rbp),%rax
   140001a28:	48 83 e8 01          	sub    $0x1,%rax
   140001a2c:	48 89 c1             	mov    %rax,%rcx
   140001a2f:	e8 64 66 00 00       	call   140008098 <free>
   140001a34:	90                   	nop
   140001a35:	48 83 c4 20          	add    $0x20,%rsp
   140001a39:	5d                   	pop    %rbp
   140001a3a:	c3                   	ret
   140001a3b:	90                   	nop
   140001a3c:	90                   	nop
   140001a3d:	90                   	nop
   140001a3e:	90                   	nop
   140001a3f:	90                   	nop

0000000140001a40 <__do_global_dtors>:
   140001a40:	48 83 ec 28          	sub    $0x28,%rsp
   140001a44:	48 8b 05 b5 75 00 00 	mov    0x75b5(%rip),%rax        # 140009000 <__data_start__>
   140001a4b:	48 8b 00             	mov    (%rax),%rax
   140001a4e:	48 85 c0             	test   %rax,%rax
   140001a51:	74 22                	je     140001a75 <__do_global_dtors+0x35>
   140001a53:	0f 1f 44 00 00       	nopl   0x0(%rax,%rax,1)
   140001a58:	ff d0                	call   *%rax
   140001a5a:	48 8b 05 9f 75 00 00 	mov    0x759f(%rip),%rax        # 140009000 <__data_start__>
   140001a61:	48 8d 50 08          	lea    0x8(%rax),%rdx
   140001a65:	48 8b 40 08          	mov    0x8(%rax),%rax
   140001a69:	48 89 15 90 75 00 00 	mov    %rdx,0x7590(%rip)        # 140009000 <__data_start__>
   140001a70:	48 85 c0             	test   %rax,%rax
   140001a73:	75 e3                	jne    140001a58 <__do_global_dtors+0x18>
   140001a75:	48 83 c4 28          	add    $0x28,%rsp
   140001a79:	c3                   	ret
   140001a7a:	66 0f 1f 44 00 00    	nopw   0x0(%rax,%rax,1)

0000000140001a80 <__do_global_ctors>:
   140001a80:	56                   	push   %rsi
   140001a81:	53                   	push   %rbx
   140001a82:	48 83 ec 28          	sub    $0x28,%rsp
   140001a86:	48 8b 15 b3 8d 00 00 	mov    0x8db3(%rip),%rdx        # 14000a840 <.refptr.__CTOR_LIST__>
   140001a8d:	48 8b 02             	mov    (%rdx),%rax
   140001a90:	89 c1                	mov    %eax,%ecx
   140001a92:	83 f8 ff             	cmp    $0xffffffff,%eax
   140001a95:	74 39                	je     140001ad0 <__do_global_ctors+0x50>
   140001a97:	85 c9                	test   %ecx,%ecx
   140001a99:	74 20                	je     140001abb <__do_global_ctors+0x3b>
   140001a9b:	89 c8                	mov    %ecx,%eax
   140001a9d:	83 e9 01             	sub    $0x1,%ecx
   140001aa0:	48 8d 1c c2          	lea    (%rdx,%rax,8),%rbx
   140001aa4:	48 29 c8             	sub    %rcx,%rax
   140001aa7:	48 8d 74 c2 f8       	lea    -0x8(%rdx,%rax,8),%rsi
   140001aac:	0f 1f 40 00          	nopl   0x0(%rax)
   140001ab0:	ff 13                	call   *(%rbx)
   140001ab2:	48 83 eb 08          	sub    $0x8,%rbx
   140001ab6:	48 39 f3             	cmp    %rsi,%rbx
   140001ab9:	75 f5                	jne    140001ab0 <__do_global_ctors+0x30>
   140001abb:	48 8d 0d 7e ff ff ff 	lea    -0x82(%rip),%rcx        # 140001a40 <__do_global_dtors>
   140001ac2:	48 83 c4 28          	add    $0x28,%rsp
   140001ac6:	5b                   	pop    %rbx
   140001ac7:	5e                   	pop    %rsi
   140001ac8:	e9 43 f9 ff ff       	jmp    140001410 <atexit>
   140001acd:	0f 1f 00             	nopl   (%rax)
   140001ad0:	31 c0                	xor    %eax,%eax
   140001ad2:	66 0f 1f 44 00 00    	nopw   0x0(%rax,%rax,1)
   140001ad8:	44 8d 40 01          	lea    0x1(%rax),%r8d
   140001adc:	89 c1                	mov    %eax,%ecx
   140001ade:	4a 83 3c c2 00       	cmpq   $0x0,(%rdx,%r8,8)
   140001ae3:	4c 89 c0             	mov    %r8,%rax
   140001ae6:	75 f0                	jne    140001ad8 <__do_global_ctors+0x58>
   140001ae8:	eb ad                	jmp    140001a97 <__do_global_ctors+0x17>
   140001aea:	66 0f 1f 44 00 00    	nopw   0x0(%rax,%rax,1)

0000000140001af0 <__main>:
   140001af0:	8b 05 3a c5 00 00    	mov    0xc53a(%rip),%eax        # 14000e030 <initialized>
   140001af6:	85 c0                	test   %eax,%eax
   140001af8:	74 06                	je     140001b00 <__main+0x10>
   140001afa:	c3                   	ret
   140001afb:	0f 1f 44 00 00       	nopl   0x0(%rax,%rax,1)
   140001b00:	c7 05 26 c5 00 00 01 	movl   $0x1,0xc526(%rip)        # 14000e030 <initialized>
   140001b07:	00 00 00 
   140001b0a:	e9 71 ff ff ff       	jmp    140001a80 <__do_global_ctors>
   140001b0f:	90                   	nop

0000000140001b10 <_setargv>:
   140001b10:	31 c0                	xor    %eax,%eax
   140001b12:	c3                   	ret
   140001b13:	90                   	nop
   140001b14:	90                   	nop
   140001b15:	90                   	nop
   140001b16:	90                   	nop
   140001b17:	90                   	nop
   140001b18:	90                   	nop
   140001b19:	90                   	nop
   140001b1a:	90                   	nop
   140001b1b:	90                   	nop
   140001b1c:	90                   	nop
   140001b1d:	90                   	nop
   140001b1e:	90                   	nop
   140001b1f:	90                   	nop

0000000140001b20 <__dyn_tls_dtor>:
   140001b20:	48 83 ec 28          	sub    $0x28,%rsp
   140001b24:	83 fa 03             	cmp    $0x3,%edx
   140001b27:	74 17                	je     140001b40 <__dyn_tls_dtor+0x20>
   140001b29:	85 d2                	test   %edx,%edx
   140001b2b:	74 13                	je     140001b40 <__dyn_tls_dtor+0x20>
   140001b2d:	b8 01 00 00 00       	mov    $0x1,%eax
   140001b32:	48 83 c4 28          	add    $0x28,%rsp
   140001b36:	c3                   	ret
   140001b37:	66 0f 1f 84 00 00 00 	nopw   0x0(%rax,%rax,1)
   140001b3e:	00 00 
   140001b40:	e8 5b 0a 00 00       	call   1400025a0 <__mingw_TLScallback>
   140001b45:	b8 01 00 00 00       	mov    $0x1,%eax
   140001b4a:	48 83 c4 28          	add    $0x28,%rsp
   140001b4e:	c3                   	ret
   140001b4f:	90                   	nop

0000000140001b50 <__dyn_tls_init>:
   140001b50:	56                   	push   %rsi
   140001b51:	53                   	push   %rbx
   140001b52:	48 83 ec 28          	sub    $0x28,%rsp
   140001b56:	48 8b 05 c3 8c 00 00 	mov    0x8cc3(%rip),%rax        # 14000a820 <.refptr._CRT_MT>
   140001b5d:	83 38 02             	cmpl   $0x2,(%rax)
   140001b60:	74 06                	je     140001b68 <__dyn_tls_init+0x18>
   140001b62:	c7 00 02 00 00 00    	movl   $0x2,(%rax)
   140001b68:	83 fa 02             	cmp    $0x2,%edx
   140001b6b:	74 13                	je     140001b80 <__dyn_tls_init+0x30>
   140001b6d:	83 fa 01             	cmp    $0x1,%edx
   140001b70:	74 4e                	je     140001bc0 <__dyn_tls_init+0x70>
   140001b72:	b8 01 00 00 00       	mov    $0x1,%eax
   140001b77:	48 83 c4 28          	add    $0x28,%rsp
   140001b7b:	5b                   	pop    %rbx
   140001b7c:	5e                   	pop    %rsi
   140001b7d:	c3                   	ret
   140001b7e:	66 90                	xchg   %ax,%ax
   140001b80:	48 8d 1d d1 e4 00 00 	lea    0xe4d1(%rip),%rbx        # 140010058 <__xd_z>
   140001b87:	48 8d 35 ca e4 00 00 	lea    0xe4ca(%rip),%rsi        # 140010058 <__xd_z>
   140001b8e:	48 39 de             	cmp    %rbx,%rsi
   140001b91:	74 df                	je     140001b72 <__dyn_tls_init+0x22>
   140001b93:	0f 1f 44 00 00       	nopl   0x0(%rax,%rax,1)
   140001b98:	48 8b 03             	mov    (%rbx),%rax
   140001b9b:	48 85 c0             	test   %rax,%rax
   140001b9e:	74 02                	je     140001ba2 <__dyn_tls_init+0x52>
   140001ba0:	ff d0                	call   *%rax
   140001ba2:	48 83 c3 08          	add    $0x8,%rbx
   140001ba6:	48 39 de             	cmp    %rbx,%rsi
   140001ba9:	75 ed                	jne    140001b98 <__dyn_tls_init+0x48>
   140001bab:	b8 01 00 00 00       	mov    $0x1,%eax
   140001bb0:	48 83 c4 28          	add    $0x28,%rsp
   140001bb4:	5b                   	pop    %rbx
   140001bb5:	5e                   	pop    %rsi
   140001bb6:	c3                   	ret
   140001bb7:	66 0f 1f 84 00 00 00 	nopw   0x0(%rax,%rax,1)
   140001bbe:	00 00 
   140001bc0:	e8 db 09 00 00       	call   1400025a0 <__mingw_TLScallback>
   140001bc5:	b8 01 00 00 00       	mov    $0x1,%eax
   140001bca:	48 83 c4 28          	add    $0x28,%rsp
   140001bce:	5b                   	pop    %rbx
   140001bcf:	5e                   	pop    %rsi
   140001bd0:	c3                   	ret
   140001bd1:	66 66 2e 0f 1f 84 00 	data16 cs nopw 0x0(%rax,%rax,1)
   140001bd8:	00 00 00 00 
   140001bdc:	0f 1f 40 00          	nopl   0x0(%rax)

0000000140001be0 <__tlregdtor>:
   140001be0:	31 c0                	xor    %eax,%eax
   140001be2:	c3                   	ret
   140001be3:	90                   	nop
   140001be4:	90                   	nop
   140001be5:	90                   	nop
   140001be6:	90                   	nop
   140001be7:	90                   	nop
   140001be8:	90                   	nop
   140001be9:	90                   	nop
   140001bea:	90                   	nop
   140001beb:	90                   	nop
   140001bec:	90                   	nop
   140001bed:	90                   	nop
   140001bee:	90                   	nop
   140001bef:	90                   	nop

0000000140001bf0 <_matherr>:
   140001bf0:	56                   	push   %rsi
   140001bf1:	53                   	push   %rbx
   140001bf2:	48 83 ec 78          	sub    $0x78,%rsp
   140001bf6:	0f 11 74 24 40       	movups %xmm6,0x40(%rsp)
   140001bfb:	0f 11 7c 24 50       	movups %xmm7,0x50(%rsp)
   140001c00:	44 0f 11 44 24 60    	movups %xmm8,0x60(%rsp)
   140001c06:	83 39 06             	cmpl   $0x6,(%rcx)
   140001c09:	0f 87 cd 00 00 00    	ja     140001cdc <_matherr+0xec>
   140001c0f:	8b 01                	mov    (%rcx),%eax
   140001c11:	48 8d 15 cc 86 00 00 	lea    0x86cc(%rip),%rdx        # 14000a2e4 <.rdata+0x124>
   140001c18:	48 63 04 82          	movslq (%rdx,%rax,4),%rax
   140001c1c:	48 01 d0             	add    %rdx,%rax
   140001c1f:	ff e0                	jmp    *%rax
   140001c21:	0f 1f 80 00 00 00 00 	nopl   0x0(%rax)
   140001c28:	48 8d 1d b0 85 00 00 	lea    0x85b0(%rip),%rbx        # 14000a1df <.rdata+0x1f>
   140001c2f:	f2 44 0f 10 41 20    	movsd  0x20(%rcx),%xmm8
   140001c35:	f2 0f 10 79 18       	movsd  0x18(%rcx),%xmm7
   140001c3a:	f2 0f 10 71 10       	movsd  0x10(%rcx),%xmm6
   140001c3f:	48 8b 71 08          	mov    0x8(%rcx),%rsi
   140001c43:	b9 02 00 00 00       	mov    $0x2,%ecx
   140001c48:	e8 83 5e 00 00       	call   140007ad0 <__acrt_iob_func>
   140001c4d:	f2 44 0f 11 44 24 30 	movsd  %xmm8,0x30(%rsp)
   140001c54:	49 89 d8             	mov    %rbx,%r8
   140001c57:	48 8d 15 5a 86 00 00 	lea    0x865a(%rip),%rdx        # 14000a2b8 <.rdata+0xf8>
   140001c5e:	f2 0f 11 7c 24 28    	movsd  %xmm7,0x28(%rsp)
   140001c64:	48 89 c1             	mov    %rax,%rcx
   140001c67:	49 89 f1             	mov    %rsi,%r9
   140001c6a:	f2 0f 11 74 24 20    	movsd  %xmm6,0x20(%rsp)
   140001c70:	e8 13 64 00 00       	call   140008088 <fprintf>
   140001c75:	90                   	nop
   140001c76:	0f 10 74 24 40       	movups 0x40(%rsp),%xmm6
   140001c7b:	0f 10 7c 24 50       	movups 0x50(%rsp),%xmm7
   140001c80:	31 c0                	xor    %eax,%eax
   140001c82:	44 0f 10 44 24 60    	movups 0x60(%rsp),%xmm8
   140001c88:	48 83 c4 78          	add    $0x78,%rsp
   140001c8c:	5b                   	pop    %rbx
   140001c8d:	5e                   	pop    %rsi
   140001c8e:	c3                   	ret
   140001c8f:	90                   	nop
   140001c90:	48 8d 1d 29 85 00 00 	lea    0x8529(%rip),%rbx        # 14000a1c0 <.rdata>
   140001c97:	eb 96                	jmp    140001c2f <_matherr+0x3f>
   140001c99:	0f 1f 80 00 00 00 00 	nopl   0x0(%rax)
   140001ca0:	48 8d 1d 79 85 00 00 	lea    0x8579(%rip),%rbx        # 14000a220 <.rdata+0x60>
   140001ca7:	eb 86                	jmp    140001c2f <_matherr+0x3f>
   140001ca9:	0f 1f 80 00 00 00 00 	nopl   0x0(%rax)
   140001cb0:	48 8d 1d 49 85 00 00 	lea    0x8549(%rip),%rbx        # 14000a200 <.rdata+0x40>
   140001cb7:	e9 73 ff ff ff       	jmp    140001c2f <_matherr+0x3f>
   140001cbc:	0f 1f 40 00          	nopl   0x0(%rax)
   140001cc0:	48 8d 1d a9 85 00 00 	lea    0x85a9(%rip),%rbx        # 14000a270 <.rdata+0xb0>
   140001cc7:	e9 63 ff ff ff       	jmp    140001c2f <_matherr+0x3f>
   140001ccc:	0f 1f 40 00          	nopl   0x0(%rax)
   140001cd0:	48 8d 1d 71 85 00 00 	lea    0x8571(%rip),%rbx        # 14000a248 <.rdata+0x88>
   140001cd7:	e9 53 ff ff ff       	jmp    140001c2f <_matherr+0x3f>
   140001cdc:	48 8d 1d c3 85 00 00 	lea    0x85c3(%rip),%rbx        # 14000a2a6 <.rdata+0xe6>
   140001ce3:	e9 47 ff ff ff       	jmp    140001c2f <_matherr+0x3f>
   140001ce8:	90                   	nop
   140001ce9:	90                   	nop
   140001cea:	90                   	nop
   140001ceb:	90                   	nop
   140001cec:	90                   	nop
   140001ced:	90                   	nop
   140001cee:	90                   	nop
   140001cef:	90                   	nop

0000000140001cf0 <_fpreset>:
   140001cf0:	db e3                	fninit
   140001cf2:	c3                   	ret
   140001cf3:	90                   	nop
   140001cf4:	90                   	nop
   140001cf5:	90                   	nop
   140001cf6:	90                   	nop
   140001cf7:	90                   	nop
   140001cf8:	90                   	nop
   140001cf9:	90                   	nop
   140001cfa:	90                   	nop
   140001cfb:	90                   	nop
   140001cfc:	90                   	nop
   140001cfd:	90                   	nop
   140001cfe:	90                   	nop
   140001cff:	90                   	nop

0000000140001d00 <__report_error>:
   140001d00:	56                   	push   %rsi
   140001d01:	53                   	push   %rbx
   140001d02:	48 83 ec 38          	sub    $0x38,%rsp
   140001d06:	48 89 cb             	mov    %rcx,%rbx
   140001d09:	48 8d 44 24 58       	lea    0x58(%rsp),%rax
   140001d0e:	b9 02 00 00 00       	mov    $0x2,%ecx
   140001d13:	48 89 54 24 58       	mov    %rdx,0x58(%rsp)
   140001d18:	4c 89 44 24 60       	mov    %r8,0x60(%rsp)
   140001d1d:	4c 89 4c 24 68       	mov    %r9,0x68(%rsp)
   140001d22:	48 89 44 24 28       	mov    %rax,0x28(%rsp)
   140001d27:	e8 a4 5d 00 00       	call   140007ad0 <__acrt_iob_func>
   140001d2c:	41 b8 1b 00 00 00    	mov    $0x1b,%r8d
   140001d32:	ba 01 00 00 00       	mov    $0x1,%edx
   140001d37:	48 8d 0d c2 85 00 00 	lea    0x85c2(%rip),%rcx        # 14000a300 <.rdata>
   140001d3e:	49 89 c1             	mov    %rax,%r9
   140001d41:	e8 5a 63 00 00       	call   1400080a0 <fwrite>
   140001d46:	48 8b 74 24 28       	mov    0x28(%rsp),%rsi
   140001d4b:	b9 02 00 00 00       	mov    $0x2,%ecx
   140001d50:	e8 7b 5d 00 00       	call   140007ad0 <__acrt_iob_func>
   140001d55:	48 89 da             	mov    %rbx,%rdx
   140001d58:	48 89 c1             	mov    %rax,%rcx
   140001d5b:	49 89 f0             	mov    %rsi,%r8
   140001d5e:	e8 85 63 00 00       	call   1400080e8 <vfprintf>
   140001d63:	e8 08 63 00 00       	call   140008070 <abort>
   140001d68:	90                   	nop
   140001d69:	0f 1f 80 00 00 00 00 	nopl   0x0(%rax)

0000000140001d70 <mark_section_writable>:
   140001d70:	57                   	push   %rdi
   140001d71:	56                   	push   %rsi
   140001d72:	53                   	push   %rbx
   140001d73:	48 83 ec 50          	sub    $0x50,%rsp
   140001d77:	48 63 35 16 c3 00 00 	movslq 0xc316(%rip),%rsi        # 14000e094 <maxSections>
   140001d7e:	48 89 cb             	mov    %rcx,%rbx
   140001d81:	85 f6                	test   %esi,%esi
   140001d83:	0f 8e 17 01 00 00    	jle    140001ea0 <mark_section_writable+0x130>
   140001d89:	48 8b 05 08 c3 00 00 	mov    0xc308(%rip),%rax        # 14000e098 <the_secs>
   140001d90:	45 31 c9             	xor    %r9d,%r9d
   140001d93:	48 83 c0 18          	add    $0x18,%rax
   140001d97:	66 0f 1f 84 00 00 00 	nopw   0x0(%rax,%rax,1)
   140001d9e:	00 00 
   140001da0:	4c 8b 00             	mov    (%rax),%r8
   140001da3:	4c 39 c3             	cmp    %r8,%rbx
   140001da6:	72 13                	jb     140001dbb <mark_section_writable+0x4b>
   140001da8:	48 8b 50 08          	mov    0x8(%rax),%rdx
   140001dac:	8b 52 08             	mov    0x8(%rdx),%edx
   140001daf:	49 01 d0             	add    %rdx,%r8
   140001db2:	4c 39 c3             	cmp    %r8,%rbx
   140001db5:	0f 82 8a 00 00 00    	jb     140001e45 <mark_section_writable+0xd5>
   140001dbb:	41 83 c1 01          	add    $0x1,%r9d
   140001dbf:	48 83 c0 28          	add    $0x28,%rax
   140001dc3:	41 39 f1             	cmp    %esi,%r9d
   140001dc6:	75 d8                	jne    140001da0 <mark_section_writable+0x30>
   140001dc8:	48 89 d9             	mov    %rbx,%rcx
   140001dcb:	e8 f0 09 00 00       	call   1400027c0 <__mingw_GetSectionForAddress>
   140001dd0:	48 89 c7             	mov    %rax,%rdi
   140001dd3:	48 85 c0             	test   %rax,%rax
   140001dd6:	0f 84 e6 00 00 00    	je     140001ec2 <mark_section_writable+0x152>
   140001ddc:	48 8b 05 b5 c2 00 00 	mov    0xc2b5(%rip),%rax        # 14000e098 <the_secs>
   140001de3:	48 8d 1c b6          	lea    (%rsi,%rsi,4),%rbx
   140001de7:	48 c1 e3 03          	shl    $0x3,%rbx
   140001deb:	48 01 d8             	add    %rbx,%rax
   140001dee:	48 89 78 20          	mov    %rdi,0x20(%rax)
   140001df2:	c7 00 00 00 00 00    	movl   $0x0,(%rax)
   140001df8:	e8 03 0b 00 00       	call   140002900 <_GetPEImageBase>
   140001dfd:	8b 57 0c             	mov    0xc(%rdi),%edx
   140001e00:	41 b8 30 00 00 00    	mov    $0x30,%r8d
   140001e06:	48 8d 0c 10          	lea    (%rax,%rdx,1),%rcx
   140001e0a:	48 8b 05 87 c2 00 00 	mov    0xc287(%rip),%rax        # 14000e098 <the_secs>
   140001e11:	48 8d 54 24 20       	lea    0x20(%rsp),%rdx
   140001e16:	48 89 4c 18 18       	mov    %rcx,0x18(%rax,%rbx,1)
   140001e1b:	ff 15 ff d3 00 00    	call   *0xd3ff(%rip)        # 14000f220 <__imp_VirtualQuery>
   140001e21:	48 85 c0             	test   %rax,%rax
   140001e24:	0f 84 7d 00 00 00    	je     140001ea7 <mark_section_writable+0x137>
   140001e2a:	8b 44 24 44          	mov    0x44(%rsp),%eax
   140001e2e:	8d 50 c0             	lea    -0x40(%rax),%edx
   140001e31:	83 e2 bf             	and    $0xffffffbf,%edx
   140001e34:	74 08                	je     140001e3e <mark_section_writable+0xce>
   140001e36:	8d 50 fc             	lea    -0x4(%rax),%edx
   140001e39:	83 e2 fb             	and    $0xfffffffb,%edx
   140001e3c:	75 12                	jne    140001e50 <mark_section_writable+0xe0>
   140001e3e:	83 05 4f c2 00 00 01 	addl   $0x1,0xc24f(%rip)        # 14000e094 <maxSections>
   140001e45:	48 83 c4 50          	add    $0x50,%rsp
   140001e49:	5b                   	pop    %rbx
   140001e4a:	5e                   	pop    %rsi
   140001e4b:	5f                   	pop    %rdi
   140001e4c:	c3                   	ret
   140001e4d:	0f 1f 00             	nopl   (%rax)
   140001e50:	83 f8 02             	cmp    $0x2,%eax
   140001e53:	48 8b 4c 24 20       	mov    0x20(%rsp),%rcx
   140001e58:	48 8b 54 24 38       	mov    0x38(%rsp),%rdx
   140001e5d:	41 b8 40 00 00 00    	mov    $0x40,%r8d
   140001e63:	b8 04 00 00 00       	mov    $0x4,%eax
   140001e68:	44 0f 44 c0          	cmove  %eax,%r8d
   140001e6c:	48 03 1d 25 c2 00 00 	add    0xc225(%rip),%rbx        # 14000e098 <the_secs>
   140001e73:	48 89 4b 08          	mov    %rcx,0x8(%rbx)
   140001e77:	49 89 d9             	mov    %rbx,%r9
   140001e7a:	48 89 53 10          	mov    %rdx,0x10(%rbx)
   140001e7e:	ff 15 94 d3 00 00    	call   *0xd394(%rip)        # 14000f218 <__imp_VirtualProtect>
   140001e84:	85 c0                	test   %eax,%eax
   140001e86:	75 b6                	jne    140001e3e <mark_section_writable+0xce>
   140001e88:	ff 15 4a d3 00 00    	call   *0xd34a(%rip)        # 14000f1d8 <__imp_GetLastError>
   140001e8e:	48 8d 0d e3 84 00 00 	lea    0x84e3(%rip),%rcx        # 14000a378 <.rdata+0x78>
   140001e95:	89 c2                	mov    %eax,%edx
   140001e97:	e8 64 fe ff ff       	call   140001d00 <__report_error>
   140001e9c:	0f 1f 40 00          	nopl   0x0(%rax)
   140001ea0:	31 f6                	xor    %esi,%esi
   140001ea2:	e9 21 ff ff ff       	jmp    140001dc8 <mark_section_writable+0x58>
   140001ea7:	48 8b 05 ea c1 00 00 	mov    0xc1ea(%rip),%rax        # 14000e098 <the_secs>
   140001eae:	8b 57 08             	mov    0x8(%rdi),%edx
   140001eb1:	48 8d 0d 88 84 00 00 	lea    0x8488(%rip),%rcx        # 14000a340 <.rdata+0x40>
   140001eb8:	4c 8b 44 18 18       	mov    0x18(%rax,%rbx,1),%r8
   140001ebd:	e8 3e fe ff ff       	call   140001d00 <__report_error>
   140001ec2:	48 89 da             	mov    %rbx,%rdx
   140001ec5:	48 8d 0d 54 84 00 00 	lea    0x8454(%rip),%rcx        # 14000a320 <.rdata+0x20>
   140001ecc:	e8 2f fe ff ff       	call   140001d00 <__report_error>
   140001ed1:	90                   	nop
   140001ed2:	66 66 2e 0f 1f 84 00 	data16 cs nopw 0x0(%rax,%rax,1)
   140001ed9:	00 00 00 00 
   140001edd:	0f 1f 00             	nopl   (%rax)

0000000140001ee0 <_pei386_runtime_relocator>:
   140001ee0:	55                   	push   %rbp
   140001ee1:	41 57                	push   %r15
   140001ee3:	41 56                	push   %r14
   140001ee5:	41 55                	push   %r13
   140001ee7:	41 54                	push   %r12
   140001ee9:	57                   	push   %rdi
   140001eea:	56                   	push   %rsi
   140001eeb:	53                   	push   %rbx
   140001eec:	48 83 ec 48          	sub    $0x48,%rsp
   140001ef0:	48 8d 6c 24 40       	lea    0x40(%rsp),%rbp
   140001ef5:	44 8b 25 94 c1 00 00 	mov    0xc194(%rip),%r12d        # 14000e090 <was_init.0>
   140001efc:	45 85 e4             	test   %r12d,%r12d
   140001eff:	74 17                	je     140001f18 <_pei386_runtime_relocator+0x38>
   140001f01:	48 8d 65 08          	lea    0x8(%rbp),%rsp
   140001f05:	5b                   	pop    %rbx
   140001f06:	5e                   	pop    %rsi
   140001f07:	5f                   	pop    %rdi
   140001f08:	41 5c                	pop    %r12
   140001f0a:	41 5d                	pop    %r13
   140001f0c:	41 5e                	pop    %r14
   140001f0e:	41 5f                	pop    %r15
   140001f10:	5d                   	pop    %rbp
   140001f11:	c3                   	ret
   140001f12:	66 0f 1f 44 00 00    	nopw   0x0(%rax,%rax,1)
   140001f18:	c7 05 6e c1 00 00 01 	movl   $0x1,0xc16e(%rip)        # 14000e090 <was_init.0>
   140001f1f:	00 00 00 
   140001f22:	e8 19 09 00 00       	call   140002840 <__mingw_GetSectionCount>
   140001f27:	48 98                	cltq
   140001f29:	48 8d 04 80          	lea    (%rax,%rax,4),%rax
   140001f2d:	48 8d 04 c5 0f 00 00 	lea    0xf(,%rax,8),%rax
   140001f34:	00 
   140001f35:	48 83 e0 f0          	and    $0xfffffffffffffff0,%rax
   140001f39:	e8 62 0b 00 00       	call   140002aa0 <___chkstk_ms>
   140001f3e:	4c 8b 2d 0b 89 00 00 	mov    0x890b(%rip),%r13        # 14000a850 <.refptr.__RUNTIME_PSEUDO_RELOC_LIST_END__>
   140001f45:	48 8b 1d 14 89 00 00 	mov    0x8914(%rip),%rbx        # 14000a860 <.refptr.__RUNTIME_PSEUDO_RELOC_LIST__>
   140001f4c:	c7 05 3e c1 00 00 00 	movl   $0x0,0xc13e(%rip)        # 14000e094 <maxSections>
   140001f53:	00 00 00 
   140001f56:	48 29 c4             	sub    %rax,%rsp
   140001f59:	48 8d 44 24 30       	lea    0x30(%rsp),%rax
   140001f5e:	48 89 05 33 c1 00 00 	mov    %rax,0xc133(%rip)        # 14000e098 <the_secs>
   140001f65:	4c 89 e8             	mov    %r13,%rax
   140001f68:	48 29 d8             	sub    %rbx,%rax
   140001f6b:	48 83 f8 07          	cmp    $0x7,%rax
   140001f6f:	7e 90                	jle    140001f01 <_pei386_runtime_relocator+0x21>
   140001f71:	8b 13                	mov    (%rbx),%edx
   140001f73:	48 83 f8 0b          	cmp    $0xb,%rax
   140001f77:	0f 8f 7b 01 00 00    	jg     1400020f8 <_pei386_runtime_relocator+0x218>
   140001f7d:	8b 03                	mov    (%rbx),%eax
   140001f7f:	85 c0                	test   %eax,%eax
   140001f81:	0f 85 69 02 00 00    	jne    1400021f0 <_pei386_runtime_relocator+0x310>
   140001f87:	8b 43 04             	mov    0x4(%rbx),%eax
   140001f8a:	85 c0                	test   %eax,%eax
   140001f8c:	0f 85 5e 02 00 00    	jne    1400021f0 <_pei386_runtime_relocator+0x310>
   140001f92:	8b 53 08             	mov    0x8(%rbx),%edx
   140001f95:	83 fa 01             	cmp    $0x1,%edx
   140001f98:	0f 85 90 02 00 00    	jne    14000222e <_pei386_runtime_relocator+0x34e>
   140001f9e:	48 83 c3 0c          	add    $0xc,%rbx
   140001fa2:	4c 39 eb             	cmp    %r13,%rbx
   140001fa5:	0f 83 56 ff ff ff    	jae    140001f01 <_pei386_runtime_relocator+0x21>
   140001fab:	4c 8b 35 ce 88 00 00 	mov    0x88ce(%rip),%r14        # 14000a880 <.refptr.__image_base__>
   140001fb2:	49 bf ff ff ff 7f ff 	movabs $0xffffffff7fffffff,%r15
   140001fb9:	ff ff ff 
   140001fbc:	eb 54                	jmp    140002012 <_pei386_runtime_relocator+0x132>
   140001fbe:	66 90                	xchg   %ax,%ax
   140001fc0:	0f b6 37             	movzbl (%rdi),%esi
   140001fc3:	81 e1 c0 00 00 00    	and    $0xc0,%ecx
   140001fc9:	40 84 f6             	test   %sil,%sil
   140001fcc:	0f 89 06 02 00 00    	jns    1400021d8 <_pei386_runtime_relocator+0x2f8>
   140001fd2:	48 81 ce 00 ff ff ff 	or     $0xffffffffffffff00,%rsi
   140001fd9:	48 29 c6             	sub    %rax,%rsi
   140001fdc:	4c 01 ce             	add    %r9,%rsi
   140001fdf:	85 c9                	test   %ecx,%ecx
   140001fe1:	75 17                	jne    140001ffa <_pei386_runtime_relocator+0x11a>
   140001fe3:	48 81 fe ff 00 00 00 	cmp    $0xff,%rsi
   140001fea:	0f 8f 4f 01 00 00    	jg     14000213f <_pei386_runtime_relocator+0x25f>
   140001ff0:	48 83 fe 80          	cmp    $0xffffffffffffff80,%rsi
   140001ff4:	0f 8c 45 01 00 00    	jl     14000213f <_pei386_runtime_relocator+0x25f>
   140001ffa:	48 89 f9             	mov    %rdi,%rcx
   140001ffd:	e8 6e fd ff ff       	call   140001d70 <mark_section_writable>
   140002002:	40 88 37             	mov    %sil,(%rdi)
   140002005:	48 83 c3 0c          	add    $0xc,%rbx
   140002009:	4c 39 eb             	cmp    %r13,%rbx
   14000200c:	0f 83 8e 00 00 00    	jae    1400020a0 <_pei386_runtime_relocator+0x1c0>
   140002012:	8b 03                	mov    (%rbx),%eax
   140002014:	8b 4b 08             	mov    0x8(%rbx),%ecx
   140002017:	8b 7b 04             	mov    0x4(%rbx),%edi
   14000201a:	4c 01 f0             	add    %r14,%rax
   14000201d:	0f b6 d1             	movzbl %cl,%edx
   140002020:	4c 8b 08             	mov    (%rax),%r9
   140002023:	4c 01 f7             	add    %r14,%rdi
   140002026:	83 fa 20             	cmp    $0x20,%edx
   140002029:	0f 84 29 01 00 00    	je     140002158 <_pei386_runtime_relocator+0x278>
   14000202f:	0f 87 eb 00 00 00    	ja     140002120 <_pei386_runtime_relocator+0x240>
   140002035:	83 fa 08             	cmp    $0x8,%edx
   140002038:	74 86                	je     140001fc0 <_pei386_runtime_relocator+0xe0>
   14000203a:	83 fa 10             	cmp    $0x10,%edx
   14000203d:	0f 85 df 01 00 00    	jne    140002222 <_pei386_runtime_relocator+0x342>
   140002043:	0f b7 37             	movzwl (%rdi),%esi
   140002046:	81 e1 c0 00 00 00    	and    $0xc0,%ecx
   14000204c:	66 85 f6             	test   %si,%si
   14000204f:	0f 89 6b 01 00 00    	jns    1400021c0 <_pei386_runtime_relocator+0x2e0>
   140002055:	48 81 ce 00 00 ff ff 	or     $0xffffffffffff0000,%rsi
   14000205c:	48 29 c6             	sub    %rax,%rsi
   14000205f:	4c 01 ce             	add    %r9,%rsi
   140002062:	85 c9                	test   %ecx,%ecx
   140002064:	75 1a                	jne    140002080 <_pei386_runtime_relocator+0x1a0>
   140002066:	48 81 fe 00 80 ff ff 	cmp    $0xffffffffffff8000,%rsi
   14000206d:	0f 8c cc 00 00 00    	jl     14000213f <_pei386_runtime_relocator+0x25f>
   140002073:	48 81 fe ff ff 00 00 	cmp    $0xffff,%rsi
   14000207a:	0f 8f bf 00 00 00    	jg     14000213f <_pei386_runtime_relocator+0x25f>
   140002080:	48 89 f9             	mov    %rdi,%rcx
   140002083:	48 83 c3 0c          	add    $0xc,%rbx
   140002087:	e8 e4 fc ff ff       	call   140001d70 <mark_section_writable>
   14000208c:	66 89 37             	mov    %si,(%rdi)
   14000208f:	4c 39 eb             	cmp    %r13,%rbx
   140002092:	0f 82 7a ff ff ff    	jb     140002012 <_pei386_runtime_relocator+0x132>
   140002098:	0f 1f 84 00 00 00 00 	nopl   0x0(%rax,%rax,1)
   14000209f:	00 
   1400020a0:	8b 15 ee bf 00 00    	mov    0xbfee(%rip),%edx        # 14000e094 <maxSections>
   1400020a6:	85 d2                	test   %edx,%edx
   1400020a8:	0f 8e 53 fe ff ff    	jle    140001f01 <_pei386_runtime_relocator+0x21>
   1400020ae:	48 8b 35 63 d1 00 00 	mov    0xd163(%rip),%rsi        # 14000f218 <__imp_VirtualProtect>
   1400020b5:	31 db                	xor    %ebx,%ebx
   1400020b7:	48 8d 7d fc          	lea    -0x4(%rbp),%rdi
   1400020bb:	0f 1f 44 00 00       	nopl   0x0(%rax,%rax,1)
   1400020c0:	48 8b 05 d1 bf 00 00 	mov    0xbfd1(%rip),%rax        # 14000e098 <the_secs>
   1400020c7:	48 01 d8             	add    %rbx,%rax
   1400020ca:	44 8b 00             	mov    (%rax),%r8d
   1400020cd:	45 85 c0             	test   %r8d,%r8d
   1400020d0:	74 0d                	je     1400020df <_pei386_runtime_relocator+0x1ff>
   1400020d2:	48 8b 50 10          	mov    0x10(%rax),%rdx
   1400020d6:	48 8b 48 08          	mov    0x8(%rax),%rcx
   1400020da:	49 89 f9             	mov    %rdi,%r9
   1400020dd:	ff d6                	call   *%rsi
   1400020df:	41 83 c4 01          	add    $0x1,%r12d
   1400020e3:	48 83 c3 28          	add    $0x28,%rbx
   1400020e7:	44 3b 25 a6 bf 00 00 	cmp    0xbfa6(%rip),%r12d        # 14000e094 <maxSections>
   1400020ee:	7c d0                	jl     1400020c0 <_pei386_runtime_relocator+0x1e0>
   1400020f0:	e9 0c fe ff ff       	jmp    140001f01 <_pei386_runtime_relocator+0x21>
   1400020f5:	0f 1f 00             	nopl   (%rax)
   1400020f8:	85 d2                	test   %edx,%edx
   1400020fa:	0f 85 f0 00 00 00    	jne    1400021f0 <_pei386_runtime_relocator+0x310>
   140002100:	8b 43 04             	mov    0x4(%rbx),%eax
   140002103:	89 c2                	mov    %eax,%edx
   140002105:	0b 53 08             	or     0x8(%rbx),%edx
   140002108:	0f 85 7c fe ff ff    	jne    140001f8a <_pei386_runtime_relocator+0xaa>
   14000210e:	48 83 c3 0c          	add    $0xc,%rbx
   140002112:	e9 66 fe ff ff       	jmp    140001f7d <_pei386_runtime_relocator+0x9d>
   140002117:	66 0f 1f 84 00 00 00 	nopw   0x0(%rax,%rax,1)
   14000211e:	00 00 
   140002120:	83 fa 40             	cmp    $0x40,%edx
   140002123:	0f 85 f9 00 00 00    	jne    140002222 <_pei386_runtime_relocator+0x342>
   140002129:	48 8b 37             	mov    (%rdi),%rsi
   14000212c:	48 29 c6             	sub    %rax,%rsi
   14000212f:	4c 01 ce             	add    %r9,%rsi
   140002132:	81 e1 c0 00 00 00    	and    $0xc0,%ecx
   140002138:	75 66                	jne    1400021a0 <_pei386_runtime_relocator+0x2c0>
   14000213a:	48 85 f6             	test   %rsi,%rsi
   14000213d:	78 61                	js     1400021a0 <_pei386_runtime_relocator+0x2c0>
   14000213f:	48 89 74 24 20       	mov    %rsi,0x20(%rsp)
   140002144:	49 89 f8             	mov    %rdi,%r8
   140002147:	48 8d 0d ba 82 00 00 	lea    0x82ba(%rip),%rcx        # 14000a408 <.rdata+0x108>
   14000214e:	e8 ad fb ff ff       	call   140001d00 <__report_error>
   140002153:	0f 1f 44 00 00       	nopl   0x0(%rax,%rax,1)
   140002158:	8b 37                	mov    (%rdi),%esi
   14000215a:	81 e1 c0 00 00 00    	and    $0xc0,%ecx
   140002160:	85 f6                	test   %esi,%esi
   140002162:	79 4c                	jns    1400021b0 <_pei386_runtime_relocator+0x2d0>
   140002164:	49 bb 00 00 00 00 ff 	movabs $0xffffffff00000000,%r11
   14000216b:	ff ff ff 
   14000216e:	4c 09 de             	or     %r11,%rsi
   140002171:	48 29 c6             	sub    %rax,%rsi
   140002174:	4c 01 ce             	add    %r9,%rsi
   140002177:	85 c9                	test   %ecx,%ecx
   140002179:	75 0f                	jne    14000218a <_pei386_runtime_relocator+0x2aa>
   14000217b:	4c 39 fe             	cmp    %r15,%rsi
   14000217e:	7e bf                	jle    14000213f <_pei386_runtime_relocator+0x25f>
   140002180:	b8 ff ff ff ff       	mov    $0xffffffff,%eax
   140002185:	48 39 c6             	cmp    %rax,%rsi
   140002188:	7f b5                	jg     14000213f <_pei386_runtime_relocator+0x25f>
   14000218a:	48 89 f9             	mov    %rdi,%rcx
   14000218d:	e8 de fb ff ff       	call   140001d70 <mark_section_writable>
   140002192:	89 37                	mov    %esi,(%rdi)
   140002194:	e9 6c fe ff ff       	jmp    140002005 <_pei386_runtime_relocator+0x125>
   140002199:	0f 1f 80 00 00 00 00 	nopl   0x0(%rax)
   1400021a0:	48 89 f9             	mov    %rdi,%rcx
   1400021a3:	e8 c8 fb ff ff       	call   140001d70 <mark_section_writable>
   1400021a8:	48 89 37             	mov    %rsi,(%rdi)
   1400021ab:	e9 55 fe ff ff       	jmp    140002005 <_pei386_runtime_relocator+0x125>
   1400021b0:	48 29 c6             	sub    %rax,%rsi
   1400021b3:	4c 01 ce             	add    %r9,%rsi
   1400021b6:	85 c9                	test   %ecx,%ecx
   1400021b8:	74 c1                	je     14000217b <_pei386_runtime_relocator+0x29b>
   1400021ba:	eb ce                	jmp    14000218a <_pei386_runtime_relocator+0x2aa>
   1400021bc:	0f 1f 40 00          	nopl   0x0(%rax)
   1400021c0:	48 29 c6             	sub    %rax,%rsi
   1400021c3:	4c 01 ce             	add    %r9,%rsi
   1400021c6:	85 c9                	test   %ecx,%ecx
   1400021c8:	0f 84 98 fe ff ff    	je     140002066 <_pei386_runtime_relocator+0x186>
   1400021ce:	e9 ad fe ff ff       	jmp    140002080 <_pei386_runtime_relocator+0x1a0>
   1400021d3:	0f 1f 44 00 00       	nopl   0x0(%rax,%rax,1)
   1400021d8:	48 29 c6             	sub    %rax,%rsi
   1400021db:	4c 01 ce             	add    %r9,%rsi
   1400021de:	85 c9                	test   %ecx,%ecx
   1400021e0:	0f 84 fd fd ff ff    	je     140001fe3 <_pei386_runtime_relocator+0x103>
   1400021e6:	e9 0f fe ff ff       	jmp    140001ffa <_pei386_runtime_relocator+0x11a>
   1400021eb:	0f 1f 44 00 00       	nopl   0x0(%rax,%rax,1)
   1400021f0:	4c 39 eb             	cmp    %r13,%rbx
   1400021f3:	0f 83 08 fd ff ff    	jae    140001f01 <_pei386_runtime_relocator+0x21>
   1400021f9:	4c 8b 35 80 86 00 00 	mov    0x8680(%rip),%r14        # 14000a880 <.refptr.__image_base__>
   140002200:	8b 73 04             	mov    0x4(%rbx),%esi
   140002203:	8b 3b                	mov    (%rbx),%edi
   140002205:	48 83 c3 08          	add    $0x8,%rbx
   140002209:	4c 01 f6             	add    %r14,%rsi
   14000220c:	03 3e                	add    (%rsi),%edi
   14000220e:	48 89 f1             	mov    %rsi,%rcx
   140002211:	e8 5a fb ff ff       	call   140001d70 <mark_section_writable>
   140002216:	89 3e                	mov    %edi,(%rsi)
   140002218:	4c 39 eb             	cmp    %r13,%rbx
   14000221b:	72 e3                	jb     140002200 <_pei386_runtime_relocator+0x320>
   14000221d:	e9 7e fe ff ff       	jmp    1400020a0 <_pei386_runtime_relocator+0x1c0>
   140002222:	48 8d 0d af 81 00 00 	lea    0x81af(%rip),%rcx        # 14000a3d8 <.rdata+0xd8>
   140002229:	e8 d2 fa ff ff       	call   140001d00 <__report_error>
   14000222e:	48 8d 0d 6b 81 00 00 	lea    0x816b(%rip),%rcx        # 14000a3a0 <.rdata+0xa0>
   140002235:	e8 c6 fa ff ff       	call   140001d00 <__report_error>
   14000223a:	90                   	nop
   14000223b:	90                   	nop
   14000223c:	90                   	nop
   14000223d:	90                   	nop
   14000223e:	90                   	nop
   14000223f:	90                   	nop

0000000140002240 <__mingw_raise_matherr>:
   140002240:	48 83 ec 58          	sub    $0x58,%rsp
   140002244:	48 8b 05 55 be 00 00 	mov    0xbe55(%rip),%rax        # 14000e0a0 <stUserMathErr>
   14000224b:	66 0f 14 d3          	unpcklpd %xmm3,%xmm2
   14000224f:	48 85 c0             	test   %rax,%rax
   140002252:	74 25                	je     140002279 <__mingw_raise_matherr+0x39>
   140002254:	f2 0f 10 84 24 80 00 	movsd  0x80(%rsp),%xmm0
   14000225b:	00 00 
   14000225d:	89 4c 24 20          	mov    %ecx,0x20(%rsp)
   140002261:	48 8d 4c 24 20       	lea    0x20(%rsp),%rcx
   140002266:	48 89 54 24 28       	mov    %rdx,0x28(%rsp)
   14000226b:	0f 11 54 24 30       	movups %xmm2,0x30(%rsp)
   140002270:	f2 0f 11 44 24 40    	movsd  %xmm0,0x40(%rsp)
   140002276:	ff d0                	call   *%rax
   140002278:	90                   	nop
   140002279:	48 83 c4 58          	add    $0x58,%rsp
   14000227d:	c3                   	ret
   14000227e:	66 90                	xchg   %ax,%ax

0000000140002280 <__mingw_setusermatherr>:
   140002280:	48 89 0d 19 be 00 00 	mov    %rcx,0xbe19(%rip)        # 14000e0a0 <stUserMathErr>
   140002287:	e9 a4 5d 00 00       	jmp    140008030 <__setusermatherr>
   14000228c:	90                   	nop
   14000228d:	90                   	nop
   14000228e:	90                   	nop
   14000228f:	90                   	nop

0000000140002290 <_gnu_exception_handler>:
   140002290:	53                   	push   %rbx
   140002291:	48 83 ec 20          	sub    $0x20,%rsp
   140002295:	48 8b 11             	mov    (%rcx),%rdx
   140002298:	8b 02                	mov    (%rdx),%eax
   14000229a:	48 89 cb             	mov    %rcx,%rbx
   14000229d:	89 c1                	mov    %eax,%ecx
   14000229f:	81 e1 ff ff ff 20    	and    $0x20ffffff,%ecx
   1400022a5:	81 f9 43 43 47 20    	cmp    $0x20474343,%ecx
   1400022ab:	0f 84 9f 00 00 00    	je     140002350 <_gnu_exception_handler+0xc0>
   1400022b1:	3d 96 00 00 c0       	cmp    $0xc0000096,%eax
   1400022b6:	77 77                	ja     14000232f <_gnu_exception_handler+0x9f>
   1400022b8:	3d 8b 00 00 c0       	cmp    $0xc000008b,%eax
   1400022bd:	76 21                	jbe    1400022e0 <_gnu_exception_handler+0x50>
   1400022bf:	05 73 ff ff 3f       	add    $0x3fffff73,%eax
   1400022c4:	83 f8 09             	cmp    $0x9,%eax
   1400022c7:	77 54                	ja     14000231d <_gnu_exception_handler+0x8d>
   1400022c9:	48 8d 15 90 81 00 00 	lea    0x8190(%rip),%rdx        # 14000a460 <.rdata>
   1400022d0:	48 63 04 82          	movslq (%rdx,%rax,4),%rax
   1400022d4:	48 01 d0             	add    %rdx,%rax
   1400022d7:	ff e0                	jmp    *%rax
   1400022d9:	0f 1f 80 00 00 00 00 	nopl   0x0(%rax)
   1400022e0:	3d 05 00 00 c0       	cmp    $0xc0000005,%eax
   1400022e5:	0f 84 d5 00 00 00    	je     1400023c0 <_gnu_exception_handler+0x130>
   1400022eb:	76 3b                	jbe    140002328 <_gnu_exception_handler+0x98>
   1400022ed:	3d 08 00 00 c0       	cmp    $0xc0000008,%eax
   1400022f2:	74 29                	je     14000231d <_gnu_exception_handler+0x8d>
   1400022f4:	3d 1d 00 00 c0       	cmp    $0xc000001d,%eax
   1400022f9:	75 34                	jne    14000232f <_gnu_exception_handler+0x9f>
   1400022fb:	31 d2                	xor    %edx,%edx
   1400022fd:	b9 04 00 00 00       	mov    $0x4,%ecx
   140002302:	e8 c1 5d 00 00       	call   1400080c8 <signal>
   140002307:	48 83 f8 01          	cmp    $0x1,%rax
   14000230b:	0f 84 d6 00 00 00    	je     1400023e7 <_gnu_exception_handler+0x157>
   140002311:	48 85 c0             	test   %rax,%rax
   140002314:	74 19                	je     14000232f <_gnu_exception_handler+0x9f>
   140002316:	b9 04 00 00 00       	mov    $0x4,%ecx
   14000231b:	ff d0                	call   *%rax
   14000231d:	b8 ff ff ff ff       	mov    $0xffffffff,%eax
   140002322:	48 83 c4 20          	add    $0x20,%rsp
   140002326:	5b                   	pop    %rbx
   140002327:	c3                   	ret
   140002328:	3d 02 00 00 80       	cmp    $0x80000002,%eax
   14000232d:	74 ee                	je     14000231d <_gnu_exception_handler+0x8d>
   14000232f:	48 8b 05 8a bd 00 00 	mov    0xbd8a(%rip),%rax        # 14000e0c0 <__mingw_oldexcpt_handler>
   140002336:	48 85 c0             	test   %rax,%rax
   140002339:	74 25                	je     140002360 <_gnu_exception_handler+0xd0>
   14000233b:	48 89 d9             	mov    %rbx,%rcx
   14000233e:	48 83 c4 20          	add    $0x20,%rsp
   140002342:	5b                   	pop    %rbx
   140002343:	48 ff e0             	rex.W jmp *%rax
   140002346:	66 2e 0f 1f 84 00 00 	cs nopw 0x0(%rax,%rax,1)
   14000234d:	00 00 00 
   140002350:	f6 42 04 01          	testb  $0x1,0x4(%rdx)
   140002354:	0f 85 57 ff ff ff    	jne    1400022b1 <_gnu_exception_handler+0x21>
   14000235a:	eb c1                	jmp    14000231d <_gnu_exception_handler+0x8d>
   14000235c:	0f 1f 40 00          	nopl   0x0(%rax)
   140002360:	31 c0                	xor    %eax,%eax
   140002362:	48 83 c4 20          	add    $0x20,%rsp
   140002366:	5b                   	pop    %rbx
   140002367:	c3                   	ret
   140002368:	0f 1f 84 00 00 00 00 	nopl   0x0(%rax,%rax,1)
   14000236f:	00 
   140002370:	31 d2                	xor    %edx,%edx
   140002372:	b9 08 00 00 00       	mov    $0x8,%ecx
   140002377:	e8 4c 5d 00 00       	call   1400080c8 <signal>
   14000237c:	48 83 f8 01          	cmp    $0x1,%rax
   140002380:	0f 84 89 00 00 00    	je     14000240f <_gnu_exception_handler+0x17f>
   140002386:	48 85 c0             	test   %rax,%rax
   140002389:	74 a4                	je     14000232f <_gnu_exception_handler+0x9f>
   14000238b:	b9 08 00 00 00       	mov    $0x8,%ecx
   140002390:	ff d0                	call   *%rax
   140002392:	eb 89                	jmp    14000231d <_gnu_exception_handler+0x8d>
   140002394:	0f 1f 40 00          	nopl   0x0(%rax)
   140002398:	31 d2                	xor    %edx,%edx
   14000239a:	b9 08 00 00 00       	mov    $0x8,%ecx
   14000239f:	e8 24 5d 00 00       	call   1400080c8 <signal>
   1400023a4:	48 83 f8 01          	cmp    $0x1,%rax
   1400023a8:	75 dc                	jne    140002386 <_gnu_exception_handler+0xf6>
   1400023aa:	ba 01 00 00 00       	mov    $0x1,%edx
   1400023af:	b9 08 00 00 00       	mov    $0x8,%ecx
   1400023b4:	e8 0f 5d 00 00       	call   1400080c8 <signal>
   1400023b9:	e9 5f ff ff ff       	jmp    14000231d <_gnu_exception_handler+0x8d>
   1400023be:	66 90                	xchg   %ax,%ax
   1400023c0:	31 d2                	xor    %edx,%edx
   1400023c2:	b9 0b 00 00 00       	mov    $0xb,%ecx
   1400023c7:	e8 fc 5c 00 00       	call   1400080c8 <signal>
   1400023cc:	48 83 f8 01          	cmp    $0x1,%rax
   1400023d0:	74 29                	je     1400023fb <_gnu_exception_handler+0x16b>
   1400023d2:	48 85 c0             	test   %rax,%rax
   1400023d5:	0f 84 54 ff ff ff    	je     14000232f <_gnu_exception_handler+0x9f>
   1400023db:	b9 0b 00 00 00       	mov    $0xb,%ecx
   1400023e0:	ff d0                	call   *%rax
   1400023e2:	e9 36 ff ff ff       	jmp    14000231d <_gnu_exception_handler+0x8d>
   1400023e7:	ba 01 00 00 00       	mov    $0x1,%edx
   1400023ec:	b9 04 00 00 00       	mov    $0x4,%ecx
   1400023f1:	e8 d2 5c 00 00       	call   1400080c8 <signal>
   1400023f6:	e9 22 ff ff ff       	jmp    14000231d <_gnu_exception_handler+0x8d>
   1400023fb:	ba 01 00 00 00       	mov    $0x1,%edx
   140002400:	b9 0b 00 00 00       	mov    $0xb,%ecx
   140002405:	e8 be 5c 00 00       	call   1400080c8 <signal>
   14000240a:	e9 0e ff ff ff       	jmp    14000231d <_gnu_exception_handler+0x8d>
   14000240f:	ba 01 00 00 00       	mov    $0x1,%edx
   140002414:	b9 08 00 00 00       	mov    $0x8,%ecx
   140002419:	e8 aa 5c 00 00       	call   1400080c8 <signal>
   14000241e:	e8 cd f8 ff ff       	call   140001cf0 <_fpreset>
   140002423:	e9 f5 fe ff ff       	jmp    14000231d <_gnu_exception_handler+0x8d>
   140002428:	90                   	nop
   140002429:	90                   	nop
   14000242a:	90                   	nop
   14000242b:	90                   	nop
   14000242c:	90                   	nop
   14000242d:	90                   	nop
   14000242e:	90                   	nop
   14000242f:	90                   	nop

0000000140002430 <__mingwthr_run_key_dtors.part.0>:
   140002430:	41 54                	push   %r12
   140002432:	55                   	push   %rbp
   140002433:	57                   	push   %rdi
   140002434:	56                   	push   %rsi
   140002435:	53                   	push   %rbx
   140002436:	48 83 ec 20          	sub    $0x20,%rsp
   14000243a:	4c 8d 25 bf bc 00 00 	lea    0xbcbf(%rip),%r12        # 14000e100 <__mingwthr_cs>
   140002441:	4c 89 e1             	mov    %r12,%rcx
   140002444:	ff 15 86 cd 00 00    	call   *0xcd86(%rip)        # 14000f1d0 <__imp_EnterCriticalSection>
   14000244a:	48 8b 1d 8f bc 00 00 	mov    0xbc8f(%rip),%rbx        # 14000e0e0 <key_dtor_list>
   140002451:	48 85 db             	test   %rbx,%rbx
   140002454:	74 36                	je     14000248c <__mingwthr_run_key_dtors.part.0+0x5c>
   140002456:	48 8b 2d b3 cd 00 00 	mov    0xcdb3(%rip),%rbp        # 14000f210 <__imp_TlsGetValue>
   14000245d:	48 8b 3d 74 cd 00 00 	mov    0xcd74(%rip),%rdi        # 14000f1d8 <__imp_GetLastError>
   140002464:	0f 1f 40 00          	nopl   0x0(%rax)
   140002468:	8b 0b                	mov    (%rbx),%ecx
   14000246a:	ff d5                	call   *%rbp
   14000246c:	48 89 c6             	mov    %rax,%rsi
   14000246f:	ff d7                	call   *%rdi
   140002471:	85 c0                	test   %eax,%eax
   140002473:	75 0e                	jne    140002483 <__mingwthr_run_key_dtors.part.0+0x53>
   140002475:	48 85 f6             	test   %rsi,%rsi
   140002478:	74 09                	je     140002483 <__mingwthr_run_key_dtors.part.0+0x53>
   14000247a:	48 8b 43 08          	mov    0x8(%rbx),%rax
   14000247e:	48 89 f1             	mov    %rsi,%rcx
   140002481:	ff d0                	call   *%rax
   140002483:	48 8b 5b 10          	mov    0x10(%rbx),%rbx
   140002487:	48 85 db             	test   %rbx,%rbx
   14000248a:	75 dc                	jne    140002468 <__mingwthr_run_key_dtors.part.0+0x38>
   14000248c:	4c 89 e1             	mov    %r12,%rcx
   14000248f:	48 83 c4 20          	add    $0x20,%rsp
   140002493:	5b                   	pop    %rbx
   140002494:	5e                   	pop    %rsi
   140002495:	5f                   	pop    %rdi
   140002496:	5d                   	pop    %rbp
   140002497:	41 5c                	pop    %r12
   140002499:	48 ff 25 50 cd 00 00 	rex.W jmp *0xcd50(%rip)        # 14000f1f0 <__imp_LeaveCriticalSection>

00000001400024a0 <___w64_mingwthr_add_key_dtor>:
   1400024a0:	57                   	push   %rdi
   1400024a1:	56                   	push   %rsi
   1400024a2:	53                   	push   %rbx
   1400024a3:	48 83 ec 20          	sub    $0x20,%rsp
   1400024a7:	8b 05 3b bc 00 00    	mov    0xbc3b(%rip),%eax        # 14000e0e8 <__mingwthr_cs_init>
   1400024ad:	89 cf                	mov    %ecx,%edi
   1400024af:	48 89 d6             	mov    %rdx,%rsi
   1400024b2:	85 c0                	test   %eax,%eax
   1400024b4:	75 0a                	jne    1400024c0 <___w64_mingwthr_add_key_dtor+0x20>
   1400024b6:	31 c0                	xor    %eax,%eax
   1400024b8:	48 83 c4 20          	add    $0x20,%rsp
   1400024bc:	5b                   	pop    %rbx
   1400024bd:	5e                   	pop    %rsi
   1400024be:	5f                   	pop    %rdi
   1400024bf:	c3                   	ret
   1400024c0:	ba 18 00 00 00       	mov    $0x18,%edx
   1400024c5:	b9 01 00 00 00       	mov    $0x1,%ecx
   1400024ca:	e8 a9 5b 00 00       	call   140008078 <calloc>
   1400024cf:	48 89 c3             	mov    %rax,%rbx
   1400024d2:	48 85 c0             	test   %rax,%rax
   1400024d5:	74 33                	je     14000250a <___w64_mingwthr_add_key_dtor+0x6a>
   1400024d7:	48 89 70 08          	mov    %rsi,0x8(%rax)
   1400024db:	48 8d 35 1e bc 00 00 	lea    0xbc1e(%rip),%rsi        # 14000e100 <__mingwthr_cs>
   1400024e2:	89 38                	mov    %edi,(%rax)
   1400024e4:	48 89 f1             	mov    %rsi,%rcx
   1400024e7:	ff 15 e3 cc 00 00    	call   *0xcce3(%rip)        # 14000f1d0 <__imp_EnterCriticalSection>
   1400024ed:	48 8b 05 ec bb 00 00 	mov    0xbbec(%rip),%rax        # 14000e0e0 <key_dtor_list>
   1400024f4:	48 89 f1             	mov    %rsi,%rcx
   1400024f7:	48 89 1d e2 bb 00 00 	mov    %rbx,0xbbe2(%rip)        # 14000e0e0 <key_dtor_list>
   1400024fe:	48 89 43 10          	mov    %rax,0x10(%rbx)
   140002502:	ff 15 e8 cc 00 00    	call   *0xcce8(%rip)        # 14000f1f0 <__imp_LeaveCriticalSection>
   140002508:	eb ac                	jmp    1400024b6 <___w64_mingwthr_add_key_dtor+0x16>
   14000250a:	83 c8 ff             	or     $0xffffffff,%eax
   14000250d:	eb a9                	jmp    1400024b8 <___w64_mingwthr_add_key_dtor+0x18>
   14000250f:	90                   	nop

0000000140002510 <___w64_mingwthr_remove_key_dtor>:
   140002510:	56                   	push   %rsi
   140002511:	53                   	push   %rbx
   140002512:	48 83 ec 28          	sub    $0x28,%rsp
   140002516:	8b 05 cc bb 00 00    	mov    0xbbcc(%rip),%eax        # 14000e0e8 <__mingwthr_cs_init>
   14000251c:	89 cb                	mov    %ecx,%ebx
   14000251e:	85 c0                	test   %eax,%eax
   140002520:	75 0e                	jne    140002530 <___w64_mingwthr_remove_key_dtor+0x20>
   140002522:	31 c0                	xor    %eax,%eax
   140002524:	48 83 c4 28          	add    $0x28,%rsp
   140002528:	5b                   	pop    %rbx
   140002529:	5e                   	pop    %rsi
   14000252a:	c3                   	ret
   14000252b:	0f 1f 44 00 00       	nopl   0x0(%rax,%rax,1)
   140002530:	48 8d 35 c9 bb 00 00 	lea    0xbbc9(%rip),%rsi        # 14000e100 <__mingwthr_cs>
   140002537:	48 89 f1             	mov    %rsi,%rcx
   14000253a:	ff 15 90 cc 00 00    	call   *0xcc90(%rip)        # 14000f1d0 <__imp_EnterCriticalSection>
   140002540:	48 8b 0d 99 bb 00 00 	mov    0xbb99(%rip),%rcx        # 14000e0e0 <key_dtor_list>
   140002547:	48 85 c9             	test   %rcx,%rcx
   14000254a:	74 27                	je     140002573 <___w64_mingwthr_remove_key_dtor+0x63>
   14000254c:	31 d2                	xor    %edx,%edx
   14000254e:	eb 0b                	jmp    14000255b <___w64_mingwthr_remove_key_dtor+0x4b>
   140002550:	48 89 ca             	mov    %rcx,%rdx
   140002553:	48 85 c0             	test   %rax,%rax
   140002556:	74 1b                	je     140002573 <___w64_mingwthr_remove_key_dtor+0x63>
   140002558:	48 89 c1             	mov    %rax,%rcx
   14000255b:	8b 01                	mov    (%rcx),%eax
   14000255d:	39 d8                	cmp    %ebx,%eax
   14000255f:	48 8b 41 10          	mov    0x10(%rcx),%rax
   140002563:	75 eb                	jne    140002550 <___w64_mingwthr_remove_key_dtor+0x40>
   140002565:	48 85 d2             	test   %rdx,%rdx
   140002568:	74 1e                	je     140002588 <___w64_mingwthr_remove_key_dtor+0x78>
   14000256a:	48 89 42 10          	mov    %rax,0x10(%rdx)
   14000256e:	e8 25 5b 00 00       	call   140008098 <free>
   140002573:	48 89 f1             	mov    %rsi,%rcx
   140002576:	ff 15 74 cc 00 00    	call   *0xcc74(%rip)        # 14000f1f0 <__imp_LeaveCriticalSection>
   14000257c:	31 c0                	xor    %eax,%eax
   14000257e:	48 83 c4 28          	add    $0x28,%rsp
   140002582:	5b                   	pop    %rbx
   140002583:	5e                   	pop    %rsi
   140002584:	c3                   	ret
   140002585:	0f 1f 00             	nopl   (%rax)
   140002588:	48 89 05 51 bb 00 00 	mov    %rax,0xbb51(%rip)        # 14000e0e0 <key_dtor_list>
   14000258f:	eb dd                	jmp    14000256e <___w64_mingwthr_remove_key_dtor+0x5e>
   140002591:	66 66 2e 0f 1f 84 00 	data16 cs nopw 0x0(%rax,%rax,1)
   140002598:	00 00 00 00 
   14000259c:	0f 1f 40 00          	nopl   0x0(%rax)

00000001400025a0 <__mingw_TLScallback>:
   1400025a0:	53                   	push   %rbx
   1400025a1:	48 83 ec 20          	sub    $0x20,%rsp
   1400025a5:	83 fa 02             	cmp    $0x2,%edx
   1400025a8:	0f 84 b2 00 00 00    	je     140002660 <__mingw_TLScallback+0xc0>
   1400025ae:	77 30                	ja     1400025e0 <__mingw_TLScallback+0x40>
   1400025b0:	85 d2                	test   %edx,%edx
   1400025b2:	74 4c                	je     140002600 <__mingw_TLScallback+0x60>
   1400025b4:	8b 05 2e bb 00 00    	mov    0xbb2e(%rip),%eax        # 14000e0e8 <__mingwthr_cs_init>
   1400025ba:	85 c0                	test   %eax,%eax
   1400025bc:	0f 84 be 00 00 00    	je     140002680 <__mingw_TLScallback+0xe0>
   1400025c2:	c7 05 1c bb 00 00 01 	movl   $0x1,0xbb1c(%rip)        # 14000e0e8 <__mingwthr_cs_init>
   1400025c9:	00 00 00 
   1400025cc:	b8 01 00 00 00       	mov    $0x1,%eax
   1400025d1:	48 83 c4 20          	add    $0x20,%rsp
   1400025d5:	5b                   	pop    %rbx
   1400025d6:	c3                   	ret
   1400025d7:	66 0f 1f 84 00 00 00 	nopw   0x0(%rax,%rax,1)
   1400025de:	00 00 
   1400025e0:	83 fa 03             	cmp    $0x3,%edx
   1400025e3:	75 e7                	jne    1400025cc <__mingw_TLScallback+0x2c>
   1400025e5:	8b 05 fd ba 00 00    	mov    0xbafd(%rip),%eax        # 14000e0e8 <__mingwthr_cs_init>
   1400025eb:	85 c0                	test   %eax,%eax
   1400025ed:	74 dd                	je     1400025cc <__mingw_TLScallback+0x2c>
   1400025ef:	e8 3c fe ff ff       	call   140002430 <__mingwthr_run_key_dtors.part.0>
   1400025f4:	eb d6                	jmp    1400025cc <__mingw_TLScallback+0x2c>
   1400025f6:	66 2e 0f 1f 84 00 00 	cs nopw 0x0(%rax,%rax,1)
   1400025fd:	00 00 00 
   140002600:	8b 05 e2 ba 00 00    	mov    0xbae2(%rip),%eax        # 14000e0e8 <__mingwthr_cs_init>
   140002606:	85 c0                	test   %eax,%eax
   140002608:	75 66                	jne    140002670 <__mingw_TLScallback+0xd0>
   14000260a:	8b 05 d8 ba 00 00    	mov    0xbad8(%rip),%eax        # 14000e0e8 <__mingwthr_cs_init>
   140002610:	83 f8 01             	cmp    $0x1,%eax
   140002613:	75 b7                	jne    1400025cc <__mingw_TLScallback+0x2c>
   140002615:	48 8b 1d c4 ba 00 00 	mov    0xbac4(%rip),%rbx        # 14000e0e0 <key_dtor_list>
   14000261c:	48 85 db             	test   %rbx,%rbx
   14000261f:	74 18                	je     140002639 <__mingw_TLScallback+0x99>
   140002621:	0f 1f 80 00 00 00 00 	nopl   0x0(%rax)
   140002628:	48 89 d9             	mov    %rbx,%rcx
   14000262b:	48 8b 5b 10          	mov    0x10(%rbx),%rbx
   14000262f:	e8 64 5a 00 00       	call   140008098 <free>
   140002634:	48 85 db             	test   %rbx,%rbx
   140002637:	75 ef                	jne    140002628 <__mingw_TLScallback+0x88>
   140002639:	48 8d 0d c0 ba 00 00 	lea    0xbac0(%rip),%rcx        # 14000e100 <__mingwthr_cs>
   140002640:	48 c7 05 95 ba 00 00 	movq   $0x0,0xba95(%rip)        # 14000e0e0 <key_dtor_list>
   140002647:	00 00 00 00 
   14000264b:	c7 05 93 ba 00 00 00 	movl   $0x0,0xba93(%rip)        # 14000e0e8 <__mingwthr_cs_init>
   140002652:	00 00 00 
   140002655:	ff 15 6d cb 00 00    	call   *0xcb6d(%rip)        # 14000f1c8 <__IAT_start__>
   14000265b:	e9 6c ff ff ff       	jmp    1400025cc <__mingw_TLScallback+0x2c>
   140002660:	e8 8b f6 ff ff       	call   140001cf0 <_fpreset>
   140002665:	b8 01 00 00 00       	mov    $0x1,%eax
   14000266a:	48 83 c4 20          	add    $0x20,%rsp
   14000266e:	5b                   	pop    %rbx
   14000266f:	c3                   	ret
   140002670:	e8 bb fd ff ff       	call   140002430 <__mingwthr_run_key_dtors.part.0>
   140002675:	eb 93                	jmp    14000260a <__mingw_TLScallback+0x6a>
   140002677:	66 0f 1f 84 00 00 00 	nopw   0x0(%rax,%rax,1)
   14000267e:	00 00 
   140002680:	48 8d 0d 79 ba 00 00 	lea    0xba79(%rip),%rcx        # 14000e100 <__mingwthr_cs>
   140002687:	ff 15 53 cb 00 00    	call   *0xcb53(%rip)        # 14000f1e0 <__imp_InitializeCriticalSection>
   14000268d:	e9 30 ff ff ff       	jmp    1400025c2 <__mingw_TLScallback+0x22>
   140002692:	90                   	nop
   140002693:	90                   	nop
   140002694:	90                   	nop
   140002695:	90                   	nop
   140002696:	90                   	nop
   140002697:	90                   	nop
   140002698:	90                   	nop
   140002699:	90                   	nop
   14000269a:	90                   	nop
   14000269b:	90                   	nop
   14000269c:	90                   	nop
   14000269d:	90                   	nop
   14000269e:	90                   	nop
   14000269f:	90                   	nop

00000001400026a0 <_ValidateImageBase>:
   1400026a0:	31 c0                	xor    %eax,%eax
   1400026a2:	66 81 39 4d 5a       	cmpw   $0x5a4d,(%rcx)
   1400026a7:	75 0f                	jne    1400026b8 <_ValidateImageBase+0x18>
   1400026a9:	48 63 51 3c          	movslq 0x3c(%rcx),%rdx
   1400026ad:	48 01 d1             	add    %rdx,%rcx
   1400026b0:	81 39 50 45 00 00    	cmpl   $0x4550,(%rcx)
   1400026b6:	74 08                	je     1400026c0 <_ValidateImageBase+0x20>
   1400026b8:	c3                   	ret
   1400026b9:	0f 1f 80 00 00 00 00 	nopl   0x0(%rax)
   1400026c0:	31 c0                	xor    %eax,%eax
   1400026c2:	66 81 79 18 0b 02    	cmpw   $0x20b,0x18(%rcx)
   1400026c8:	0f 94 c0             	sete   %al
   1400026cb:	c3                   	ret
   1400026cc:	0f 1f 40 00          	nopl   0x0(%rax)

00000001400026d0 <_FindPESection>:
   1400026d0:	48 63 41 3c          	movslq 0x3c(%rcx),%rax
   1400026d4:	48 01 c1             	add    %rax,%rcx
   1400026d7:	0f b7 41 14          	movzwl 0x14(%rcx),%eax
   1400026db:	44 0f b7 41 06       	movzwl 0x6(%rcx),%r8d
   1400026e0:	48 8d 44 01 18       	lea    0x18(%rcx,%rax,1),%rax
   1400026e5:	66 45 85 c0          	test   %r8w,%r8w
   1400026e9:	74 32                	je     14000271d <_FindPESection+0x4d>
   1400026eb:	41 8d 48 ff          	lea    -0x1(%r8),%ecx
   1400026ef:	48 8d 0c 89          	lea    (%rcx,%rcx,4),%rcx
   1400026f3:	4c 8d 4c c8 28       	lea    0x28(%rax,%rcx,8),%r9
   1400026f8:	0f 1f 84 00 00 00 00 	nopl   0x0(%rax,%rax,1)
   1400026ff:	00 
   140002700:	44 8b 40 0c          	mov    0xc(%rax),%r8d
   140002704:	4c 89 c1             	mov    %r8,%rcx
   140002707:	4c 39 c2             	cmp    %r8,%rdx
   14000270a:	72 08                	jb     140002714 <_FindPESection+0x44>
   14000270c:	03 48 08             	add    0x8(%rax),%ecx
   14000270f:	48 39 ca             	cmp    %rcx,%rdx
   140002712:	72 0b                	jb     14000271f <_FindPESection+0x4f>
   140002714:	48 83 c0 28          	add    $0x28,%rax
   140002718:	4c 39 c8             	cmp    %r9,%rax
   14000271b:	75 e3                	jne    140002700 <_FindPESection+0x30>
   14000271d:	31 c0                	xor    %eax,%eax
   14000271f:	c3                   	ret

0000000140002720 <_FindPESectionByName>:
   140002720:	57                   	push   %rdi
   140002721:	56                   	push   %rsi
   140002722:	53                   	push   %rbx
   140002723:	48 83 ec 20          	sub    $0x20,%rsp
   140002727:	48 89 ce             	mov    %rcx,%rsi
   14000272a:	e8 a9 59 00 00       	call   1400080d8 <strlen>
   14000272f:	48 83 f8 08          	cmp    $0x8,%rax
   140002733:	77 7b                	ja     1400027b0 <_FindPESectionByName+0x90>
   140002735:	48 8b 15 44 81 00 00 	mov    0x8144(%rip),%rdx        # 14000a880 <.refptr.__image_base__>
   14000273c:	31 db                	xor    %ebx,%ebx
   14000273e:	66 81 3a 4d 5a       	cmpw   $0x5a4d,(%rdx)
   140002743:	75 59                	jne    14000279e <_FindPESectionByName+0x7e>
   140002745:	48 63 42 3c          	movslq 0x3c(%rdx),%rax
   140002749:	48 01 d0             	add    %rdx,%rax
   14000274c:	81 38 50 45 00 00    	cmpl   $0x4550,(%rax)
   140002752:	75 4a                	jne    14000279e <_FindPESectionByName+0x7e>
   140002754:	66 81 78 18 0b 02    	cmpw   $0x20b,0x18(%rax)
   14000275a:	75 42                	jne    14000279e <_FindPESectionByName+0x7e>
   14000275c:	0f b7 50 14          	movzwl 0x14(%rax),%edx
   140002760:	48 8d 5c 10 18       	lea    0x18(%rax,%rdx,1),%rbx
   140002765:	0f b7 50 06          	movzwl 0x6(%rax),%edx
   140002769:	66 85 d2             	test   %dx,%dx
   14000276c:	74 42                	je     1400027b0 <_FindPESectionByName+0x90>
   14000276e:	8d 42 ff             	lea    -0x1(%rdx),%eax
   140002771:	48 8d 04 80          	lea    (%rax,%rax,4),%rax
   140002775:	48 8d 7c c3 28       	lea    0x28(%rbx,%rax,8),%rdi
   14000277a:	eb 0d                	jmp    140002789 <_FindPESectionByName+0x69>
   14000277c:	0f 1f 40 00          	nopl   0x0(%rax)
   140002780:	48 83 c3 28          	add    $0x28,%rbx
   140002784:	48 39 fb             	cmp    %rdi,%rbx
   140002787:	74 27                	je     1400027b0 <_FindPESectionByName+0x90>
   140002789:	41 b8 08 00 00 00    	mov    $0x8,%r8d
   14000278f:	48 89 f2             	mov    %rsi,%rdx
   140002792:	48 89 d9             	mov    %rbx,%rcx
   140002795:	e8 46 59 00 00       	call   1400080e0 <strncmp>
   14000279a:	85 c0                	test   %eax,%eax
   14000279c:	75 e2                	jne    140002780 <_FindPESectionByName+0x60>
   14000279e:	48 89 d8             	mov    %rbx,%rax
   1400027a1:	48 83 c4 20          	add    $0x20,%rsp
   1400027a5:	5b                   	pop    %rbx
   1400027a6:	5e                   	pop    %rsi
   1400027a7:	5f                   	pop    %rdi
   1400027a8:	c3                   	ret
   1400027a9:	0f 1f 80 00 00 00 00 	nopl   0x0(%rax)
   1400027b0:	31 db                	xor    %ebx,%ebx
   1400027b2:	48 89 d8             	mov    %rbx,%rax
   1400027b5:	48 83 c4 20          	add    $0x20,%rsp
   1400027b9:	5b                   	pop    %rbx
   1400027ba:	5e                   	pop    %rsi
   1400027bb:	5f                   	pop    %rdi
   1400027bc:	c3                   	ret
   1400027bd:	0f 1f 00             	nopl   (%rax)

00000001400027c0 <__mingw_GetSectionForAddress>:
   1400027c0:	48 8b 15 b9 80 00 00 	mov    0x80b9(%rip),%rdx        # 14000a880 <.refptr.__image_base__>
   1400027c7:	31 c0                	xor    %eax,%eax
   1400027c9:	66 81 3a 4d 5a       	cmpw   $0x5a4d,(%rdx)
   1400027ce:	75 10                	jne    1400027e0 <__mingw_GetSectionForAddress+0x20>
   1400027d0:	4c 63 42 3c          	movslq 0x3c(%rdx),%r8
   1400027d4:	49 01 d0             	add    %rdx,%r8
   1400027d7:	41 81 38 50 45 00 00 	cmpl   $0x4550,(%r8)
   1400027de:	74 08                	je     1400027e8 <__mingw_GetSectionForAddress+0x28>
   1400027e0:	c3                   	ret
   1400027e1:	0f 1f 80 00 00 00 00 	nopl   0x0(%rax)
   1400027e8:	66 41 81 78 18 0b 02 	cmpw   $0x20b,0x18(%r8)
   1400027ef:	75 ef                	jne    1400027e0 <__mingw_GetSectionForAddress+0x20>
   1400027f1:	41 0f b7 40 14       	movzwl 0x14(%r8),%eax
   1400027f6:	48 29 d1             	sub    %rdx,%rcx
   1400027f9:	49 8d 44 00 18       	lea    0x18(%r8,%rax,1),%rax
   1400027fe:	45 0f b7 40 06       	movzwl 0x6(%r8),%r8d
   140002803:	66 45 85 c0          	test   %r8w,%r8w
   140002807:	74 34                	je     14000283d <__mingw_GetSectionForAddress+0x7d>
   140002809:	41 8d 50 ff          	lea    -0x1(%r8),%edx
   14000280d:	48 8d 14 92          	lea    (%rdx,%rdx,4),%rdx
   140002811:	4c 8d 4c d0 28       	lea    0x28(%rax,%rdx,8),%r9
   140002816:	66 2e 0f 1f 84 00 00 	cs nopw 0x0(%rax,%rax,1)
   14000281d:	00 00 00 
   140002820:	44 8b 40 0c          	mov    0xc(%rax),%r8d
   140002824:	4c 89 c2             	mov    %r8,%rdx
   140002827:	4c 39 c1             	cmp    %r8,%rcx
   14000282a:	72 08                	jb     140002834 <__mingw_GetSectionForAddress+0x74>
   14000282c:	03 50 08             	add    0x8(%rax),%edx
   14000282f:	48 39 d1             	cmp    %rdx,%rcx
   140002832:	72 ac                	jb     1400027e0 <__mingw_GetSectionForAddress+0x20>
   140002834:	48 83 c0 28          	add    $0x28,%rax
   140002838:	4c 39 c8             	cmp    %r9,%rax
   14000283b:	75 e3                	jne    140002820 <__mingw_GetSectionForAddress+0x60>
   14000283d:	31 c0                	xor    %eax,%eax
   14000283f:	c3                   	ret

0000000140002840 <__mingw_GetSectionCount>:
   140002840:	48 8b 05 39 80 00 00 	mov    0x8039(%rip),%rax        # 14000a880 <.refptr.__image_base__>
   140002847:	31 c9                	xor    %ecx,%ecx
   140002849:	66 81 38 4d 5a       	cmpw   $0x5a4d,(%rax)
   14000284e:	75 0f                	jne    14000285f <__mingw_GetSectionCount+0x1f>
   140002850:	48 63 50 3c          	movslq 0x3c(%rax),%rdx
   140002854:	48 01 d0             	add    %rdx,%rax
   140002857:	81 38 50 45 00 00    	cmpl   $0x4550,(%rax)
   14000285d:	74 09                	je     140002868 <__mingw_GetSectionCount+0x28>
   14000285f:	89 c8                	mov    %ecx,%eax
   140002861:	c3                   	ret
   140002862:	66 0f 1f 44 00 00    	nopw   0x0(%rax,%rax,1)
   140002868:	66 81 78 18 0b 02    	cmpw   $0x20b,0x18(%rax)
   14000286e:	75 ef                	jne    14000285f <__mingw_GetSectionCount+0x1f>
   140002870:	0f b7 48 06          	movzwl 0x6(%rax),%ecx
   140002874:	89 c8                	mov    %ecx,%eax
   140002876:	c3                   	ret
   140002877:	66 0f 1f 84 00 00 00 	nopw   0x0(%rax,%rax,1)
   14000287e:	00 00 

0000000140002880 <_FindPESectionExec>:
   140002880:	4c 8b 05 f9 7f 00 00 	mov    0x7ff9(%rip),%r8        # 14000a880 <.refptr.__image_base__>
   140002887:	31 c0                	xor    %eax,%eax
   140002889:	66 41 81 38 4d 5a    	cmpw   $0x5a4d,(%r8)
   14000288f:	75 0f                	jne    1400028a0 <_FindPESectionExec+0x20>
   140002891:	49 63 50 3c          	movslq 0x3c(%r8),%rdx
   140002895:	4c 01 c2             	add    %r8,%rdx
   140002898:	81 3a 50 45 00 00    	cmpl   $0x4550,(%rdx)
   14000289e:	74 08                	je     1400028a8 <_FindPESectionExec+0x28>
   1400028a0:	c3                   	ret
   1400028a1:	0f 1f 80 00 00 00 00 	nopl   0x0(%rax)
   1400028a8:	66 81 7a 18 0b 02    	cmpw   $0x20b,0x18(%rdx)
   1400028ae:	75 f0                	jne    1400028a0 <_FindPESectionExec+0x20>
   1400028b0:	0f b7 42 14          	movzwl 0x14(%rdx),%eax
   1400028b4:	44 0f b7 42 06       	movzwl 0x6(%rdx),%r8d
   1400028b9:	48 8d 44 02 18       	lea    0x18(%rdx,%rax,1),%rax
   1400028be:	66 45 85 c0          	test   %r8w,%r8w
   1400028c2:	74 2c                	je     1400028f0 <_FindPESectionExec+0x70>
   1400028c4:	41 8d 50 ff          	lea    -0x1(%r8),%edx
   1400028c8:	48 8d 14 92          	lea    (%rdx,%rdx,4),%rdx
   1400028cc:	48 8d 54 d0 28       	lea    0x28(%rax,%rdx,8),%rdx
   1400028d1:	0f 1f 80 00 00 00 00 	nopl   0x0(%rax)
   1400028d8:	f6 40 27 20          	testb  $0x20,0x27(%rax)
   1400028dc:	74 09                	je     1400028e7 <_FindPESectionExec+0x67>
   1400028de:	48 85 c9             	test   %rcx,%rcx
   1400028e1:	74 bd                	je     1400028a0 <_FindPESectionExec+0x20>
   1400028e3:	48 83 e9 01          	sub    $0x1,%rcx
   1400028e7:	48 83 c0 28          	add    $0x28,%rax
   1400028eb:	48 39 d0             	cmp    %rdx,%rax
   1400028ee:	75 e8                	jne    1400028d8 <_FindPESectionExec+0x58>
   1400028f0:	31 c0                	xor    %eax,%eax
   1400028f2:	c3                   	ret
   1400028f3:	66 66 2e 0f 1f 84 00 	data16 cs nopw 0x0(%rax,%rax,1)
   1400028fa:	00 00 00 00 
   1400028fe:	66 90                	xchg   %ax,%ax

0000000140002900 <_GetPEImageBase>:
   140002900:	48 8b 05 79 7f 00 00 	mov    0x7f79(%rip),%rax        # 14000a880 <.refptr.__image_base__>
   140002907:	31 d2                	xor    %edx,%edx
   140002909:	66 81 38 4d 5a       	cmpw   $0x5a4d,(%rax)
   14000290e:	75 0f                	jne    14000291f <_GetPEImageBase+0x1f>
   140002910:	48 63 48 3c          	movslq 0x3c(%rax),%rcx
   140002914:	48 01 c1             	add    %rax,%rcx
   140002917:	81 39 50 45 00 00    	cmpl   $0x4550,(%rcx)
   14000291d:	74 09                	je     140002928 <_GetPEImageBase+0x28>
   14000291f:	48 89 d0             	mov    %rdx,%rax
   140002922:	c3                   	ret
   140002923:	0f 1f 44 00 00       	nopl   0x0(%rax,%rax,1)
   140002928:	66 81 79 18 0b 02    	cmpw   $0x20b,0x18(%rcx)
   14000292e:	48 0f 44 d0          	cmove  %rax,%rdx
   140002932:	48 89 d0             	mov    %rdx,%rax
   140002935:	c3                   	ret
   140002936:	66 2e 0f 1f 84 00 00 	cs nopw 0x0(%rax,%rax,1)
   14000293d:	00 00 00 

0000000140002940 <_IsNonwritableInCurrentImage>:
   140002940:	48 8b 15 39 7f 00 00 	mov    0x7f39(%rip),%rdx        # 14000a880 <.refptr.__image_base__>
   140002947:	31 c0                	xor    %eax,%eax
   140002949:	66 81 3a 4d 5a       	cmpw   $0x5a4d,(%rdx)
   14000294e:	75 10                	jne    140002960 <_IsNonwritableInCurrentImage+0x20>
   140002950:	4c 63 42 3c          	movslq 0x3c(%rdx),%r8
   140002954:	49 01 d0             	add    %rdx,%r8
   140002957:	41 81 38 50 45 00 00 	cmpl   $0x4550,(%r8)
   14000295e:	74 08                	je     140002968 <_IsNonwritableInCurrentImage+0x28>
   140002960:	c3                   	ret
   140002961:	0f 1f 80 00 00 00 00 	nopl   0x0(%rax)
   140002968:	66 41 81 78 18 0b 02 	cmpw   $0x20b,0x18(%r8)
   14000296f:	75 ef                	jne    140002960 <_IsNonwritableInCurrentImage+0x20>
   140002971:	48 29 d1             	sub    %rdx,%rcx
   140002974:	45 0f b7 48 06       	movzwl 0x6(%r8),%r9d
   140002979:	41 0f b7 50 14       	movzwl 0x14(%r8),%edx
   14000297e:	49 8d 54 10 18       	lea    0x18(%r8,%rdx,1),%rdx
   140002983:	66 45 85 c9          	test   %r9w,%r9w
   140002987:	74 d7                	je     140002960 <_IsNonwritableInCurrentImage+0x20>
   140002989:	41 8d 41 ff          	lea    -0x1(%r9),%eax
   14000298d:	48 8d 04 80          	lea    (%rax,%rax,4),%rax
   140002991:	4c 8d 4c c2 28       	lea    0x28(%rdx,%rax,8),%r9
   140002996:	66 2e 0f 1f 84 00 00 	cs nopw 0x0(%rax,%rax,1)
   14000299d:	00 00 00 
   1400029a0:	44 8b 42 0c          	mov    0xc(%rdx),%r8d
   1400029a4:	4c 89 c0             	mov    %r8,%rax
   1400029a7:	4c 39 c1             	cmp    %r8,%rcx
   1400029aa:	72 08                	jb     1400029b4 <_IsNonwritableInCurrentImage+0x74>
   1400029ac:	03 42 08             	add    0x8(%rdx),%eax
   1400029af:	48 39 c1             	cmp    %rax,%rcx
   1400029b2:	72 0c                	jb     1400029c0 <_IsNonwritableInCurrentImage+0x80>
   1400029b4:	48 83 c2 28          	add    $0x28,%rdx
   1400029b8:	49 39 d1             	cmp    %rdx,%r9
   1400029bb:	75 e3                	jne    1400029a0 <_IsNonwritableInCurrentImage+0x60>
   1400029bd:	31 c0                	xor    %eax,%eax
   1400029bf:	c3                   	ret
   1400029c0:	8b 42 24             	mov    0x24(%rdx),%eax
   1400029c3:	f7 d0                	not    %eax
   1400029c5:	c1 e8 1f             	shr    $0x1f,%eax
   1400029c8:	c3                   	ret
   1400029c9:	0f 1f 80 00 00 00 00 	nopl   0x0(%rax)

00000001400029d0 <__mingw_enum_import_library_names>:
   1400029d0:	4c 8b 1d a9 7e 00 00 	mov    0x7ea9(%rip),%r11        # 14000a880 <.refptr.__image_base__>
   1400029d7:	45 31 c9             	xor    %r9d,%r9d
   1400029da:	66 41 81 3b 4d 5a    	cmpw   $0x5a4d,(%r11)
   1400029e0:	75 10                	jne    1400029f2 <__mingw_enum_import_library_names+0x22>
   1400029e2:	4d 63 43 3c          	movslq 0x3c(%r11),%r8
   1400029e6:	4d 01 d8             	add    %r11,%r8
   1400029e9:	41 81 38 50 45 00 00 	cmpl   $0x4550,(%r8)
   1400029f0:	74 0e                	je     140002a00 <__mingw_enum_import_library_names+0x30>
   1400029f2:	4c 89 c8             	mov    %r9,%rax
   1400029f5:	c3                   	ret
   1400029f6:	66 2e 0f 1f 84 00 00 	cs nopw 0x0(%rax,%rax,1)
   1400029fd:	00 00 00 
   140002a00:	66 41 81 78 18 0b 02 	cmpw   $0x20b,0x18(%r8)
   140002a07:	75 e9                	jne    1400029f2 <__mingw_enum_import_library_names+0x22>
   140002a09:	41 8b 80 90 00 00 00 	mov    0x90(%r8),%eax
   140002a10:	85 c0                	test   %eax,%eax
   140002a12:	74 de                	je     1400029f2 <__mingw_enum_import_library_names+0x22>
   140002a14:	41 0f b7 50 14       	movzwl 0x14(%r8),%edx
   140002a19:	45 0f b7 50 06       	movzwl 0x6(%r8),%r10d
   140002a1e:	49 8d 54 10 18       	lea    0x18(%r8,%rdx,1),%rdx
   140002a23:	66 45 85 d2          	test   %r10w,%r10w
   140002a27:	74 c9                	je     1400029f2 <__mingw_enum_import_library_names+0x22>
   140002a29:	45 8d 42 ff          	lea    -0x1(%r10),%r8d
   140002a2d:	4f 8d 04 80          	lea    (%r8,%r8,4),%r8
   140002a31:	4e 8d 54 c2 28       	lea    0x28(%rdx,%r8,8),%r10
   140002a36:	66 2e 0f 1f 84 00 00 	cs nopw 0x0(%rax,%rax,1)
   140002a3d:	00 00 00 
   140002a40:	44 8b 4a 0c          	mov    0xc(%rdx),%r9d
   140002a44:	4d 89 c8             	mov    %r9,%r8
   140002a47:	4c 39 c8             	cmp    %r9,%rax
   140002a4a:	72 09                	jb     140002a55 <__mingw_enum_import_library_names+0x85>
   140002a4c:	44 03 42 08          	add    0x8(%rdx),%r8d
   140002a50:	4c 39 c0             	cmp    %r8,%rax
   140002a53:	72 13                	jb     140002a68 <__mingw_enum_import_library_names+0x98>
   140002a55:	48 83 c2 28          	add    $0x28,%rdx
   140002a59:	4c 39 d2             	cmp    %r10,%rdx
   140002a5c:	75 e2                	jne    140002a40 <__mingw_enum_import_library_names+0x70>
   140002a5e:	45 31 c9             	xor    %r9d,%r9d
   140002a61:	4c 89 c8             	mov    %r9,%rax
   140002a64:	c3                   	ret
   140002a65:	0f 1f 00             	nopl   (%rax)
   140002a68:	4c 01 d8             	add    %r11,%rax
   140002a6b:	eb 0a                	jmp    140002a77 <__mingw_enum_import_library_names+0xa7>
   140002a6d:	0f 1f 00             	nopl   (%rax)
   140002a70:	83 e9 01             	sub    $0x1,%ecx
   140002a73:	48 83 c0 14          	add    $0x14,%rax
   140002a77:	44 8b 40 04          	mov    0x4(%rax),%r8d
   140002a7b:	45 85 c0             	test   %r8d,%r8d
   140002a7e:	75 07                	jne    140002a87 <__mingw_enum_import_library_names+0xb7>
   140002a80:	8b 50 0c             	mov    0xc(%rax),%edx
   140002a83:	85 d2                	test   %edx,%edx
   140002a85:	74 d7                	je     140002a5e <__mingw_enum_import_library_names+0x8e>
   140002a87:	85 c9                	test   %ecx,%ecx
   140002a89:	7f e5                	jg     140002a70 <__mingw_enum_import_library_names+0xa0>
   140002a8b:	44 8b 48 0c          	mov    0xc(%rax),%r9d
   140002a8f:	4d 01 d9             	add    %r11,%r9
   140002a92:	4c 89 c8             	mov    %r9,%rax
   140002a95:	c3                   	ret
   140002a96:	90                   	nop
   140002a97:	90                   	nop
   140002a98:	90                   	nop
   140002a99:	90                   	nop
   140002a9a:	90                   	nop
   140002a9b:	90                   	nop
   140002a9c:	90                   	nop
   140002a9d:	90                   	nop
   140002a9e:	90                   	nop
   140002a9f:	90                   	nop

0000000140002aa0 <___chkstk_ms>:
   140002aa0:	51                   	push   %rcx
   140002aa1:	50                   	push   %rax
   140002aa2:	48 3d 00 10 00 00    	cmp    $0x1000,%rax
   140002aa8:	48 8d 4c 24 18       	lea    0x18(%rsp),%rcx
   140002aad:	72 19                	jb     140002ac8 <___chkstk_ms+0x28>
   140002aaf:	48 81 e9 00 10 00 00 	sub    $0x1000,%rcx
   140002ab6:	48 83 09 00          	orq    $0x0,(%rcx)
   140002aba:	48 2d 00 10 00 00    	sub    $0x1000,%rax
   140002ac0:	48 3d 00 10 00 00    	cmp    $0x1000,%rax
   140002ac6:	77 e7                	ja     140002aaf <___chkstk_ms+0xf>
   140002ac8:	48 29 c1             	sub    %rax,%rcx
   140002acb:	48 83 09 00          	orq    $0x0,(%rcx)
   140002acf:	58                   	pop    %rax
   140002ad0:	59                   	pop    %rcx
   140002ad1:	c3                   	ret
   140002ad2:	90                   	nop
   140002ad3:	90                   	nop
   140002ad4:	90                   	nop
   140002ad5:	90                   	nop
   140002ad6:	90                   	nop
   140002ad7:	90                   	nop
   140002ad8:	90                   	nop
   140002ad9:	90                   	nop
   140002ada:	90                   	nop
   140002adb:	90                   	nop
   140002adc:	90                   	nop
   140002add:	90                   	nop
   140002ade:	90                   	nop
   140002adf:	90                   	nop

0000000140002ae0 <__mingw_vfprintf>:
   140002ae0:	57                   	push   %rdi
   140002ae1:	56                   	push   %rsi
   140002ae2:	53                   	push   %rbx
   140002ae3:	48 83 ec 30          	sub    $0x30,%rsp
   140002ae7:	4c 89 c7             	mov    %r8,%rdi
   140002aea:	48 89 cb             	mov    %rcx,%rbx
   140002aed:	48 89 d6             	mov    %rdx,%rsi
   140002af0:	e8 eb 4e 00 00       	call   1400079e0 <_lock_file>
   140002af5:	48 89 7c 24 20       	mov    %rdi,0x20(%rsp)
   140002afa:	49 89 f1             	mov    %rsi,%r9
   140002afd:	45 31 c0             	xor    %r8d,%r8d
   140002b00:	48 89 da             	mov    %rbx,%rdx
   140002b03:	b9 00 60 00 00       	mov    $0x6000,%ecx
   140002b08:	e8 83 1b 00 00       	call   140004690 <__mingw_pformat>
   140002b0d:	48 89 d9             	mov    %rbx,%rcx
   140002b10:	89 c6                	mov    %eax,%esi
   140002b12:	e8 39 4f 00 00       	call   140007a50 <_unlock_file>
   140002b17:	89 f0                	mov    %esi,%eax
   140002b19:	48 83 c4 30          	add    $0x30,%rsp
   140002b1d:	5b                   	pop    %rbx
   140002b1e:	5e                   	pop    %rsi
   140002b1f:	5f                   	pop    %rdi
   140002b20:	c3                   	ret
   140002b21:	90                   	nop
   140002b22:	90                   	nop
   140002b23:	90                   	nop
   140002b24:	90                   	nop
   140002b25:	90                   	nop
   140002b26:	90                   	nop
   140002b27:	90                   	nop
   140002b28:	90                   	nop
   140002b29:	90                   	nop
   140002b2a:	90                   	nop
   140002b2b:	90                   	nop
   140002b2c:	90                   	nop
   140002b2d:	90                   	nop
   140002b2e:	90                   	nop
   140002b2f:	90                   	nop

0000000140002b30 <__mingw_vsnprintf>:
   140002b30:	56                   	push   %rsi
   140002b31:	53                   	push   %rbx
   140002b32:	48 83 ec 38          	sub    $0x38,%rsp
   140002b36:	48 89 ce             	mov    %rcx,%rsi
   140002b39:	48 85 d2             	test   %rdx,%rdx
   140002b3c:	74 32                	je     140002b70 <__mingw_vsnprintf+0x40>
   140002b3e:	4c 89 4c 24 20       	mov    %r9,0x20(%rsp)
   140002b43:	48 8d 5a ff          	lea    -0x1(%rdx),%rbx
   140002b47:	4d 89 c1             	mov    %r8,%r9
   140002b4a:	48 89 ca             	mov    %rcx,%rdx
   140002b4d:	41 89 d8             	mov    %ebx,%r8d
   140002b50:	31 c9                	xor    %ecx,%ecx
   140002b52:	e8 39 1b 00 00       	call   140004690 <__mingw_pformat>
   140002b57:	89 da                	mov    %ebx,%edx
   140002b59:	39 d8                	cmp    %ebx,%eax
   140002b5b:	0f 4e d0             	cmovle %eax,%edx
   140002b5e:	48 63 d2             	movslq %edx,%rdx
   140002b61:	c6 04 16 00          	movb   $0x0,(%rsi,%rdx,1)
   140002b65:	48 83 c4 38          	add    $0x38,%rsp
   140002b69:	5b                   	pop    %rbx
   140002b6a:	5e                   	pop    %rsi
   140002b6b:	c3                   	ret
   140002b6c:	0f 1f 40 00          	nopl   0x0(%rax)
   140002b70:	4c 89 4c 24 20       	mov    %r9,0x20(%rsp)
   140002b75:	48 89 ca             	mov    %rcx,%rdx
   140002b78:	4d 89 c1             	mov    %r8,%r9
   140002b7b:	31 c9                	xor    %ecx,%ecx
   140002b7d:	45 31 c0             	xor    %r8d,%r8d
   140002b80:	e8 0b 1b 00 00       	call   140004690 <__mingw_pformat>
   140002b85:	48 83 c4 38          	add    $0x38,%rsp
   140002b89:	5b                   	pop    %rbx
   140002b8a:	5e                   	pop    %rsi
   140002b8b:	c3                   	ret
   140002b8c:	90                   	nop
   140002b8d:	90                   	nop
   140002b8e:	90                   	nop
   140002b8f:	90                   	nop

0000000140002b90 <__pformat_cvt>:
   140002b90:	48 83 ec 68          	sub    $0x68,%rsp
   140002b94:	48 8b 02             	mov    (%rdx),%rax
   140002b97:	8b 52 08             	mov    0x8(%rdx),%edx
   140002b9a:	41 89 d2             	mov    %edx,%r10d
   140002b9d:	41 89 cb             	mov    %ecx,%r11d
   140002ba0:	48 89 44 24 50       	mov    %rax,0x50(%rsp)
   140002ba5:	48 89 d1             	mov    %rdx,%rcx
   140002ba8:	89 54 24 58          	mov    %edx,0x58(%rsp)
   140002bac:	66 41 81 e2 ff 7f    	and    $0x7fff,%r10w
   140002bb2:	75 74                	jne    140002c28 <__pformat_cvt+0x98>
   140002bb4:	48 89 c2             	mov    %rax,%rdx
   140002bb7:	48 c1 ea 20          	shr    $0x20,%rdx
   140002bbb:	09 d0                	or     %edx,%eax
   140002bbd:	0f 84 8d 00 00 00    	je     140002c50 <__pformat_cvt+0xc0>
   140002bc3:	85 d2                	test   %edx,%edx
   140002bc5:	0f 89 95 00 00 00    	jns    140002c60 <__pformat_cvt+0xd0>
   140002bcb:	41 8d 92 c2 bf ff ff 	lea    -0x403e(%r10),%edx
   140002bd2:	b8 01 00 00 00       	mov    $0x1,%eax
   140002bd7:	0f bf d2             	movswl %dx,%edx
   140002bda:	89 44 24 44          	mov    %eax,0x44(%rsp)
   140002bde:	81 e1 00 80 00 00    	and    $0x8000,%ecx
   140002be4:	48 8b 84 24 90 00 00 	mov    0x90(%rsp),%rax
   140002beb:	00 
   140002bec:	89 08                	mov    %ecx,(%rax)
   140002bee:	48 8d 44 24 48       	lea    0x48(%rsp),%rax
   140002bf3:	48 8d 0d 56 64 00 00 	lea    0x6456(%rip),%rcx        # 140009050 <fpi.0>
   140002bfa:	4c 89 4c 24 30       	mov    %r9,0x30(%rsp)
   140002bff:	4c 8d 4c 24 44       	lea    0x44(%rsp),%r9
   140002c04:	44 89 44 24 28       	mov    %r8d,0x28(%rsp)
   140002c09:	4c 8d 44 24 50       	lea    0x50(%rsp),%r8
   140002c0e:	48 89 44 24 38       	mov    %rax,0x38(%rsp)
   140002c13:	44 89 5c 24 20       	mov    %r11d,0x20(%rsp)
   140002c18:	e8 b3 27 00 00       	call   1400053d0 <__gdtoa>
   140002c1d:	48 83 c4 68          	add    $0x68,%rsp
   140002c21:	c3                   	ret
   140002c22:	66 0f 1f 44 00 00    	nopw   0x0(%rax,%rax,1)
   140002c28:	66 41 81 fa ff 7f    	cmp    $0x7fff,%r10w
   140002c2e:	75 9b                	jne    140002bcb <__pformat_cvt+0x3b>
   140002c30:	48 89 c2             	mov    %rax,%rdx
   140002c33:	48 c1 ea 20          	shr    $0x20,%rdx
   140002c37:	81 e2 ff ff ff 7f    	and    $0x7fffffff,%edx
   140002c3d:	09 c2                	or     %eax,%edx
   140002c3f:	74 2f                	je     140002c70 <__pformat_cvt+0xe0>
   140002c41:	c7 44 24 44 04 00 00 	movl   $0x4,0x44(%rsp)
   140002c48:	00 
   140002c49:	31 d2                	xor    %edx,%edx
   140002c4b:	31 c9                	xor    %ecx,%ecx
   140002c4d:	eb 95                	jmp    140002be4 <__pformat_cvt+0x54>
   140002c4f:	90                   	nop
   140002c50:	31 c0                	xor    %eax,%eax
   140002c52:	31 d2                	xor    %edx,%edx
   140002c54:	eb 84                	jmp    140002bda <__pformat_cvt+0x4a>
   140002c56:	66 2e 0f 1f 84 00 00 	cs nopw 0x0(%rax,%rax,1)
   140002c5d:	00 00 00 
   140002c60:	b8 02 00 00 00       	mov    $0x2,%eax
   140002c65:	ba c3 bf ff ff       	mov    $0xffffbfc3,%edx
   140002c6a:	e9 6b ff ff ff       	jmp    140002bda <__pformat_cvt+0x4a>
   140002c6f:	90                   	nop
   140002c70:	b8 03 00 00 00       	mov    $0x3,%eax
   140002c75:	31 d2                	xor    %edx,%edx
   140002c77:	e9 5e ff ff ff       	jmp    140002bda <__pformat_cvt+0x4a>
   140002c7c:	0f 1f 40 00          	nopl   0x0(%rax)

0000000140002c80 <__pformat_putc>:
   140002c80:	53                   	push   %rbx
   140002c81:	48 83 ec 20          	sub    $0x20,%rsp
   140002c85:	48 89 d3             	mov    %rdx,%rbx
   140002c88:	8b 52 08             	mov    0x8(%rdx),%edx
   140002c8b:	f6 c6 40             	test   $0x40,%dh
   140002c8e:	75 08                	jne    140002c98 <__pformat_putc+0x18>
   140002c90:	8b 43 24             	mov    0x24(%rbx),%eax
   140002c93:	39 43 28             	cmp    %eax,0x28(%rbx)
   140002c96:	7e 12                	jle    140002caa <__pformat_putc+0x2a>
   140002c98:	48 8b 03             	mov    (%rbx),%rax
   140002c9b:	80 e6 20             	and    $0x20,%dh
   140002c9e:	75 20                	jne    140002cc0 <__pformat_putc+0x40>
   140002ca0:	48 63 53 24          	movslq 0x24(%rbx),%rdx
   140002ca4:	88 0c 10             	mov    %cl,(%rax,%rdx,1)
   140002ca7:	8b 43 24             	mov    0x24(%rbx),%eax
   140002caa:	83 c0 01             	add    $0x1,%eax
   140002cad:	89 43 24             	mov    %eax,0x24(%rbx)
   140002cb0:	48 83 c4 20          	add    $0x20,%rsp
   140002cb4:	5b                   	pop    %rbx
   140002cb5:	c3                   	ret
   140002cb6:	66 2e 0f 1f 84 00 00 	cs nopw 0x0(%rax,%rax,1)
   140002cbd:	00 00 00 
   140002cc0:	48 89 c2             	mov    %rax,%rdx
   140002cc3:	e8 c8 53 00 00       	call   140008090 <fputc>
   140002cc8:	8b 43 24             	mov    0x24(%rbx),%eax
   140002ccb:	83 c0 01             	add    $0x1,%eax
   140002cce:	89 43 24             	mov    %eax,0x24(%rbx)
   140002cd1:	48 83 c4 20          	add    $0x20,%rsp
   140002cd5:	5b                   	pop    %rbx
   140002cd6:	c3                   	ret
   140002cd7:	66 0f 1f 84 00 00 00 	nopw   0x0(%rax,%rax,1)
   140002cde:	00 00 

0000000140002ce0 <__pformat_wputchars>:
   140002ce0:	41 57                	push   %r15
   140002ce2:	41 56                	push   %r14
   140002ce4:	41 55                	push   %r13
   140002ce6:	41 54                	push   %r12
   140002ce8:	55                   	push   %rbp
   140002ce9:	57                   	push   %rdi
   140002cea:	56                   	push   %rsi
   140002ceb:	53                   	push   %rbx
   140002cec:	48 83 ec 48          	sub    $0x48,%rsp
   140002cf0:	4c 8d 6c 24 28       	lea    0x28(%rsp),%r13
   140002cf5:	48 8d 7c 24 30       	lea    0x30(%rsp),%rdi
   140002cfa:	89 d6                	mov    %edx,%esi
   140002cfc:	4c 89 c3             	mov    %r8,%rbx
   140002cff:	31 d2                	xor    %edx,%edx
   140002d01:	48 89 cd             	mov    %rcx,%rbp
   140002d04:	4d 89 e8             	mov    %r13,%r8
   140002d07:	48 89 f9             	mov    %rdi,%rcx
   140002d0a:	e8 71 4e 00 00       	call   140007b80 <wcrtomb>
   140002d0f:	8b 43 10             	mov    0x10(%rbx),%eax
   140002d12:	39 c6                	cmp    %eax,%esi
   140002d14:	89 c2                	mov    %eax,%edx
   140002d16:	0f 4e d6             	cmovle %esi,%edx
   140002d19:	85 c0                	test   %eax,%eax
   140002d1b:	8b 43 0c             	mov    0xc(%rbx),%eax
   140002d1e:	0f 49 f2             	cmovns %edx,%esi
   140002d21:	39 f0                	cmp    %esi,%eax
   140002d23:	0f 8f e2 00 00 00    	jg     140002e0b <__pformat_wputchars+0x12b>
   140002d29:	c7 43 0c ff ff ff ff 	movl   $0xffffffff,0xc(%rbx)
   140002d30:	44 8d 66 ff          	lea    -0x1(%rsi),%r12d
   140002d34:	85 f6                	test   %esi,%esi
   140002d36:	0f 8e 29 01 00 00    	jle    140002e65 <__pformat_wputchars+0x185>
   140002d3c:	31 f6                	xor    %esi,%esi
   140002d3e:	41 83 c4 01          	add    $0x1,%r12d
   140002d42:	66 0f 1f 44 00 00    	nopw   0x0(%rax,%rax,1)
   140002d48:	0f b7 54 75 00       	movzwl 0x0(%rbp,%rsi,2),%edx
   140002d4d:	4d 89 e8             	mov    %r13,%r8
   140002d50:	48 89 f9             	mov    %rdi,%rcx
   140002d53:	e8 28 4e 00 00       	call   140007b80 <wcrtomb>
   140002d58:	85 c0                	test   %eax,%eax
   140002d5a:	0f 8e 8d 00 00 00    	jle    140002ded <__pformat_wputchars+0x10d>
   140002d60:	83 e8 01             	sub    $0x1,%eax
   140002d63:	49 89 fe             	mov    %rdi,%r14
   140002d66:	4c 8d 7c 07 01       	lea    0x1(%rdi,%rax,1),%r15
   140002d6b:	eb 18                	jmp    140002d85 <__pformat_wputchars+0xa5>
   140002d6d:	0f 1f 00             	nopl   (%rax)
   140002d70:	48 63 53 24          	movslq 0x24(%rbx),%rdx
   140002d74:	88 0c 10             	mov    %cl,(%rax,%rdx,1)
   140002d77:	8b 43 24             	mov    0x24(%rbx),%eax
   140002d7a:	83 c0 01             	add    $0x1,%eax
   140002d7d:	89 43 24             	mov    %eax,0x24(%rbx)
   140002d80:	4d 39 fe             	cmp    %r15,%r14
   140002d83:	74 37                	je     140002dbc <__pformat_wputchars+0xdc>
   140002d85:	8b 53 08             	mov    0x8(%rbx),%edx
   140002d88:	49 83 c6 01          	add    $0x1,%r14
   140002d8c:	f6 c6 40             	test   $0x40,%dh
   140002d8f:	75 08                	jne    140002d99 <__pformat_wputchars+0xb9>
   140002d91:	8b 43 24             	mov    0x24(%rbx),%eax
   140002d94:	39 43 28             	cmp    %eax,0x28(%rbx)
   140002d97:	7e e1                	jle    140002d7a <__pformat_wputchars+0x9a>
   140002d99:	41 0f be 4e ff       	movsbl -0x1(%r14),%ecx
   140002d9e:	48 8b 03             	mov    (%rbx),%rax
   140002da1:	80 e6 20             	and    $0x20,%dh
   140002da4:	74 ca                	je     140002d70 <__pformat_wputchars+0x90>
   140002da6:	48 89 c2             	mov    %rax,%rdx
   140002da9:	e8 e2 52 00 00       	call   140008090 <fputc>
   140002dae:	8b 43 24             	mov    0x24(%rbx),%eax
   140002db1:	83 c0 01             	add    $0x1,%eax
   140002db4:	89 43 24             	mov    %eax,0x24(%rbx)
   140002db7:	4d 39 fe             	cmp    %r15,%r14
   140002dba:	75 c9                	jne    140002d85 <__pformat_wputchars+0xa5>
   140002dbc:	48 83 c6 01          	add    $0x1,%rsi
   140002dc0:	44 89 e0             	mov    %r12d,%eax
   140002dc3:	29 f0                	sub    %esi,%eax
   140002dc5:	85 c0                	test   %eax,%eax
   140002dc7:	0f 8f 7b ff ff ff    	jg     140002d48 <__pformat_wputchars+0x68>
   140002dcd:	8b 43 0c             	mov    0xc(%rbx),%eax
   140002dd0:	8d 50 ff             	lea    -0x1(%rax),%edx
   140002dd3:	89 53 0c             	mov    %edx,0xc(%rbx)
   140002dd6:	85 c0                	test   %eax,%eax
   140002dd8:	7e 20                	jle    140002dfa <__pformat_wputchars+0x11a>
   140002dda:	66 0f 1f 44 00 00    	nopw   0x0(%rax,%rax,1)
   140002de0:	48 89 da             	mov    %rbx,%rdx
   140002de3:	b9 20 00 00 00       	mov    $0x20,%ecx
   140002de8:	e8 93 fe ff ff       	call   140002c80 <__pformat_putc>
   140002ded:	8b 43 0c             	mov    0xc(%rbx),%eax
   140002df0:	8d 50 ff             	lea    -0x1(%rax),%edx
   140002df3:	89 53 0c             	mov    %edx,0xc(%rbx)
   140002df6:	85 c0                	test   %eax,%eax
   140002df8:	7f e6                	jg     140002de0 <__pformat_wputchars+0x100>
   140002dfa:	48 83 c4 48          	add    $0x48,%rsp
   140002dfe:	5b                   	pop    %rbx
   140002dff:	5e                   	pop    %rsi
   140002e00:	5f                   	pop    %rdi
   140002e01:	5d                   	pop    %rbp
   140002e02:	41 5c                	pop    %r12
   140002e04:	41 5d                	pop    %r13
   140002e06:	41 5e                	pop    %r14
   140002e08:	41 5f                	pop    %r15
   140002e0a:	c3                   	ret
   140002e0b:	29 f0                	sub    %esi,%eax
   140002e0d:	89 43 0c             	mov    %eax,0xc(%rbx)
   140002e10:	f6 43 09 04          	testb  $0x4,0x9(%rbx)
   140002e14:	75 3a                	jne    140002e50 <__pformat_wputchars+0x170>
   140002e16:	83 e8 01             	sub    $0x1,%eax
   140002e19:	89 43 0c             	mov    %eax,0xc(%rbx)
   140002e1c:	0f 1f 40 00          	nopl   0x0(%rax)
   140002e20:	48 89 da             	mov    %rbx,%rdx
   140002e23:	b9 20 00 00 00       	mov    $0x20,%ecx
   140002e28:	e8 53 fe ff ff       	call   140002c80 <__pformat_putc>
   140002e2d:	8b 43 0c             	mov    0xc(%rbx),%eax
   140002e30:	8d 50 ff             	lea    -0x1(%rax),%edx
   140002e33:	89 53 0c             	mov    %edx,0xc(%rbx)
   140002e36:	85 c0                	test   %eax,%eax
   140002e38:	75 e6                	jne    140002e20 <__pformat_wputchars+0x140>
   140002e3a:	44 8d 66 ff          	lea    -0x1(%rsi),%r12d
   140002e3e:	85 f6                	test   %esi,%esi
   140002e40:	0f 8f f6 fe ff ff    	jg     140002d3c <__pformat_wputchars+0x5c>
   140002e46:	eb a5                	jmp    140002ded <__pformat_wputchars+0x10d>
   140002e48:	0f 1f 84 00 00 00 00 	nopl   0x0(%rax,%rax,1)
   140002e4f:	00 
   140002e50:	44 8d 66 ff          	lea    -0x1(%rsi),%r12d
   140002e54:	85 f6                	test   %esi,%esi
   140002e56:	0f 8f e0 fe ff ff    	jg     140002d3c <__pformat_wputchars+0x5c>
   140002e5c:	83 6b 0c 01          	subl   $0x1,0xc(%rbx)
   140002e60:	e9 7b ff ff ff       	jmp    140002de0 <__pformat_wputchars+0x100>
   140002e65:	c7 43 0c fe ff ff ff 	movl   $0xfffffffe,0xc(%rbx)
   140002e6c:	eb 8c                	jmp    140002dfa <__pformat_wputchars+0x11a>
   140002e6e:	66 90                	xchg   %ax,%ax

0000000140002e70 <__pformat_putchars>:
   140002e70:	57                   	push   %rdi
   140002e71:	56                   	push   %rsi
   140002e72:	53                   	push   %rbx
   140002e73:	48 83 ec 20          	sub    $0x20,%rsp
   140002e77:	41 8b 40 10          	mov    0x10(%r8),%eax
   140002e7b:	89 d7                	mov    %edx,%edi
   140002e7d:	39 c2                	cmp    %eax,%edx
   140002e7f:	89 c2                	mov    %eax,%edx
   140002e81:	48 89 ce             	mov    %rcx,%rsi
   140002e84:	0f 4e d7             	cmovle %edi,%edx
   140002e87:	85 c0                	test   %eax,%eax
   140002e89:	41 8b 40 0c          	mov    0xc(%r8),%eax
   140002e8d:	4c 89 c3             	mov    %r8,%rbx
   140002e90:	0f 49 fa             	cmovns %edx,%edi
   140002e93:	39 f8                	cmp    %edi,%eax
   140002e95:	0f 8f bd 00 00 00    	jg     140002f58 <__pformat_putchars+0xe8>
   140002e9b:	41 c7 40 0c ff ff ff 	movl   $0xffffffff,0xc(%r8)
   140002ea2:	ff 
   140002ea3:	8d 57 ff             	lea    -0x1(%rdi),%edx
   140002ea6:	85 ff                	test   %edi,%edi
   140002ea8:	0f 84 97 00 00 00    	je     140002f45 <__pformat_putchars+0xd5>
   140002eae:	8b 43 08             	mov    0x8(%rbx),%eax
   140002eb1:	8d 7a 01             	lea    0x1(%rdx),%edi
   140002eb4:	48 01 f7             	add    %rsi,%rdi
   140002eb7:	eb 1f                	jmp    140002ed8 <__pformat_putchars+0x68>
   140002eb9:	0f 1f 80 00 00 00 00 	nopl   0x0(%rax)
   140002ec0:	48 63 43 24          	movslq 0x24(%rbx),%rax
   140002ec4:	88 0c 02             	mov    %cl,(%rdx,%rax,1)
   140002ec7:	8b 53 24             	mov    0x24(%rbx),%edx
   140002eca:	83 c2 01             	add    $0x1,%edx
   140002ecd:	89 53 24             	mov    %edx,0x24(%rbx)
   140002ed0:	48 39 fe             	cmp    %rdi,%rsi
   140002ed3:	74 3c                	je     140002f11 <__pformat_putchars+0xa1>
   140002ed5:	8b 43 08             	mov    0x8(%rbx),%eax
   140002ed8:	48 83 c6 01          	add    $0x1,%rsi
   140002edc:	f6 c4 40             	test   $0x40,%ah
   140002edf:	75 08                	jne    140002ee9 <__pformat_putchars+0x79>
   140002ee1:	8b 53 24             	mov    0x24(%rbx),%edx
   140002ee4:	39 53 28             	cmp    %edx,0x28(%rbx)
   140002ee7:	7e e1                	jle    140002eca <__pformat_putchars+0x5a>
   140002ee9:	0f be 4e ff          	movsbl -0x1(%rsi),%ecx
   140002eed:	48 8b 13             	mov    (%rbx),%rdx
   140002ef0:	f6 c4 20             	test   $0x20,%ah
   140002ef3:	74 cb                	je     140002ec0 <__pformat_putchars+0x50>
   140002ef5:	e8 96 51 00 00       	call   140008090 <fputc>
   140002efa:	8b 53 24             	mov    0x24(%rbx),%edx
   140002efd:	eb cb                	jmp    140002eca <__pformat_putchars+0x5a>
   140002eff:	90                   	nop
   140002f00:	48 63 43 24          	movslq 0x24(%rbx),%rax
   140002f04:	c6 04 02 20          	movb   $0x20,(%rdx,%rax,1)
   140002f08:	8b 53 24             	mov    0x24(%rbx),%edx
   140002f0b:	83 c2 01             	add    $0x1,%edx
   140002f0e:	89 53 24             	mov    %edx,0x24(%rbx)
   140002f11:	8b 43 0c             	mov    0xc(%rbx),%eax
   140002f14:	8d 50 ff             	lea    -0x1(%rax),%edx
   140002f17:	89 53 0c             	mov    %edx,0xc(%rbx)
   140002f1a:	85 c0                	test   %eax,%eax
   140002f1c:	7e 2e                	jle    140002f4c <__pformat_putchars+0xdc>
   140002f1e:	8b 43 08             	mov    0x8(%rbx),%eax
   140002f21:	f6 c4 40             	test   $0x40,%ah
   140002f24:	75 08                	jne    140002f2e <__pformat_putchars+0xbe>
   140002f26:	8b 53 24             	mov    0x24(%rbx),%edx
   140002f29:	39 53 28             	cmp    %edx,0x28(%rbx)
   140002f2c:	7e dd                	jle    140002f0b <__pformat_putchars+0x9b>
   140002f2e:	48 8b 13             	mov    (%rbx),%rdx
   140002f31:	f6 c4 20             	test   $0x20,%ah
   140002f34:	74 ca                	je     140002f00 <__pformat_putchars+0x90>
   140002f36:	b9 20 00 00 00       	mov    $0x20,%ecx
   140002f3b:	e8 50 51 00 00       	call   140008090 <fputc>
   140002f40:	8b 53 24             	mov    0x24(%rbx),%edx
   140002f43:	eb c6                	jmp    140002f0b <__pformat_putchars+0x9b>
   140002f45:	c7 43 0c fe ff ff ff 	movl   $0xfffffffe,0xc(%rbx)
   140002f4c:	48 83 c4 20          	add    $0x20,%rsp
   140002f50:	5b                   	pop    %rbx
   140002f51:	5e                   	pop    %rsi
   140002f52:	5f                   	pop    %rdi
   140002f53:	c3                   	ret
   140002f54:	0f 1f 40 00          	nopl   0x0(%rax)
   140002f58:	29 f8                	sub    %edi,%eax
   140002f5a:	41 89 40 0c          	mov    %eax,0xc(%r8)
   140002f5e:	89 c2                	mov    %eax,%edx
   140002f60:	41 8b 40 08          	mov    0x8(%r8),%eax
   140002f64:	f6 c4 04             	test   $0x4,%ah
   140002f67:	75 37                	jne    140002fa0 <__pformat_putchars+0x130>
   140002f69:	8d 42 ff             	lea    -0x1(%rdx),%eax
   140002f6c:	41 89 40 0c          	mov    %eax,0xc(%r8)
   140002f70:	48 89 da             	mov    %rbx,%rdx
   140002f73:	b9 20 00 00 00       	mov    $0x20,%ecx
   140002f78:	e8 03 fd ff ff       	call   140002c80 <__pformat_putc>
   140002f7d:	8b 43 0c             	mov    0xc(%rbx),%eax
   140002f80:	8d 50 ff             	lea    -0x1(%rax),%edx
   140002f83:	89 53 0c             	mov    %edx,0xc(%rbx)
   140002f86:	85 c0                	test   %eax,%eax
   140002f88:	75 e6                	jne    140002f70 <__pformat_putchars+0x100>
   140002f8a:	8d 57 ff             	lea    -0x1(%rdi),%edx
   140002f8d:	85 ff                	test   %edi,%edi
   140002f8f:	0f 85 19 ff ff ff    	jne    140002eae <__pformat_putchars+0x3e>
   140002f95:	e9 77 ff ff ff       	jmp    140002f11 <__pformat_putchars+0xa1>
   140002f9a:	66 0f 1f 44 00 00    	nopw   0x0(%rax,%rax,1)
   140002fa0:	8d 57 ff             	lea    -0x1(%rdi),%edx
   140002fa3:	85 ff                	test   %edi,%edi
   140002fa5:	0f 85 06 ff ff ff    	jne    140002eb1 <__pformat_putchars+0x41>
   140002fab:	83 6b 0c 01          	subl   $0x1,0xc(%rbx)
   140002faf:	e9 6d ff ff ff       	jmp    140002f21 <__pformat_putchars+0xb1>
   140002fb4:	66 66 2e 0f 1f 84 00 	data16 cs nopw 0x0(%rax,%rax,1)
   140002fbb:	00 00 00 00 
   140002fbf:	90                   	nop

0000000140002fc0 <__pformat_puts>:
   140002fc0:	56                   	push   %rsi
   140002fc1:	53                   	push   %rbx
   140002fc2:	48 83 ec 28          	sub    $0x28,%rsp
   140002fc6:	48 8d 05 c3 74 00 00 	lea    0x74c3(%rip),%rax        # 14000a490 <.rdata>
   140002fcd:	48 89 cb             	mov    %rcx,%rbx
   140002fd0:	48 85 c9             	test   %rcx,%rcx
   140002fd3:	48 89 d6             	mov    %rdx,%rsi
   140002fd6:	48 63 52 10          	movslq 0x10(%rdx),%rdx
   140002fda:	48 0f 44 d8          	cmove  %rax,%rbx
   140002fde:	48 89 d9             	mov    %rbx,%rcx
   140002fe1:	85 d2                	test   %edx,%edx
   140002fe3:	78 1b                	js     140003000 <__pformat_puts+0x40>
   140002fe5:	e8 76 49 00 00       	call   140007960 <strnlen>
   140002fea:	49 89 f0             	mov    %rsi,%r8
   140002fed:	89 c2                	mov    %eax,%edx
   140002fef:	48 89 d9             	mov    %rbx,%rcx
   140002ff2:	48 83 c4 28          	add    $0x28,%rsp
   140002ff6:	5b                   	pop    %rbx
   140002ff7:	5e                   	pop    %rsi
   140002ff8:	e9 73 fe ff ff       	jmp    140002e70 <__pformat_putchars>
   140002ffd:	0f 1f 00             	nopl   (%rax)
   140003000:	e8 d3 50 00 00       	call   1400080d8 <strlen>
   140003005:	eb e3                	jmp    140002fea <__pformat_puts+0x2a>
   140003007:	66 0f 1f 84 00 00 00 	nopw   0x0(%rax,%rax,1)
   14000300e:	00 00 

0000000140003010 <__pformat_emit_inf_or_nan>:
   140003010:	48 83 ec 38          	sub    $0x38,%rsp
   140003014:	45 8b 50 08          	mov    0x8(%r8),%r10d
   140003018:	41 c7 40 10 ff ff ff 	movl   $0xffffffff,0x10(%r8)
   14000301f:	ff 
   140003020:	85 c9                	test   %ecx,%ecx
   140003022:	75 5c                	jne    140003080 <__pformat_emit_inf_or_nan+0x70>
   140003024:	b8 2b 00 00 00       	mov    $0x2b,%eax
   140003029:	41 f7 c2 00 01 00 00 	test   $0x100,%r10d
   140003030:	75 53                	jne    140003085 <__pformat_emit_inf_or_nan+0x75>
   140003032:	41 f6 c2 40          	test   $0x40,%r10b
   140003036:	74 60                	je     140003098 <__pformat_emit_inf_or_nan+0x88>
   140003038:	b8 20 00 00 00       	mov    $0x20,%eax
   14000303d:	4c 8d 4c 24 2d       	lea    0x2d(%rsp),%r9
   140003042:	4c 8d 5c 24 2c       	lea    0x2c(%rsp),%r11
   140003047:	88 44 24 2c          	mov    %al,0x2c(%rsp)
   14000304b:	41 83 e2 20          	and    $0x20,%r10d
   14000304f:	31 c9                	xor    %ecx,%ecx
   140003051:	0f b6 04 0a          	movzbl (%rdx,%rcx,1),%eax
   140003055:	83 e0 df             	and    $0xffffffdf,%eax
   140003058:	44 09 d0             	or     %r10d,%eax
   14000305b:	41 88 04 09          	mov    %al,(%r9,%rcx,1)
   14000305f:	48 83 c1 01          	add    $0x1,%rcx
   140003063:	48 83 f9 03          	cmp    $0x3,%rcx
   140003067:	75 e8                	jne    140003051 <__pformat_emit_inf_or_nan+0x41>
   140003069:	49 8d 51 03          	lea    0x3(%r9),%rdx
   14000306d:	4c 89 d9             	mov    %r11,%rcx
   140003070:	44 29 da             	sub    %r11d,%edx
   140003073:	e8 f8 fd ff ff       	call   140002e70 <__pformat_putchars>
   140003078:	90                   	nop
   140003079:	48 83 c4 38          	add    $0x38,%rsp
   14000307d:	c3                   	ret
   14000307e:	66 90                	xchg   %ax,%ax
   140003080:	b8 2d 00 00 00       	mov    $0x2d,%eax
   140003085:	88 44 24 2c          	mov    %al,0x2c(%rsp)
   140003089:	4c 8d 4c 24 2d       	lea    0x2d(%rsp),%r9
   14000308e:	4c 8d 5c 24 2c       	lea    0x2c(%rsp),%r11
   140003093:	eb b6                	jmp    14000304b <__pformat_emit_inf_or_nan+0x3b>
   140003095:	0f 1f 00             	nopl   (%rax)
   140003098:	4c 8d 5c 24 2c       	lea    0x2c(%rsp),%r11
   14000309d:	4d 89 d9             	mov    %r11,%r9
   1400030a0:	eb a9                	jmp    14000304b <__pformat_emit_inf_or_nan+0x3b>
   1400030a2:	66 66 2e 0f 1f 84 00 	data16 cs nopw 0x0(%rax,%rax,1)
   1400030a9:	00 00 00 00 
   1400030ad:	0f 1f 00             	nopl   (%rax)

00000001400030b0 <__pformat_xint.isra.0>:
   1400030b0:	55                   	push   %rbp
   1400030b1:	41 57                	push   %r15
   1400030b3:	41 56                	push   %r14
   1400030b5:	41 55                	push   %r13
   1400030b7:	41 54                	push   %r12
   1400030b9:	57                   	push   %rdi
   1400030ba:	56                   	push   %rsi
   1400030bb:	53                   	push   %rbx
   1400030bc:	48 83 ec 28          	sub    $0x28,%rsp
   1400030c0:	48 8d 6c 24 20       	lea    0x20(%rsp),%rbp
   1400030c5:	41 89 ce             	mov    %ecx,%r14d
   1400030c8:	4c 89 c3             	mov    %r8,%rbx
   1400030cb:	83 f9 6f             	cmp    $0x6f,%ecx
   1400030ce:	0f 84 fc 02 00 00    	je     1400033d0 <__pformat_xint.isra.0+0x320>
   1400030d4:	45 8b 78 10          	mov    0x10(%r8),%r15d
   1400030d8:	31 c0                	xor    %eax,%eax
   1400030da:	41 8b 78 08          	mov    0x8(%r8),%edi
   1400030de:	45 85 ff             	test   %r15d,%r15d
   1400030e1:	41 0f 49 c7          	cmovns %r15d,%eax
   1400030e5:	83 c0 12             	add    $0x12,%eax
   1400030e8:	f7 c7 00 10 00 00    	test   $0x1000,%edi
   1400030ee:	0f 84 9c 00 00 00    	je     140003190 <__pformat_xint.isra.0+0xe0>
   1400030f4:	b9 04 00 00 00       	mov    $0x4,%ecx
   1400030f9:	66 83 7b 20 00       	cmpw   $0x0,0x20(%rbx)
   1400030fe:	74 14                	je     140003114 <__pformat_xint.isra.0+0x64>
   140003100:	41 89 c0             	mov    %eax,%r8d
   140003103:	41 b9 ab aa aa aa    	mov    $0xaaaaaaab,%r9d
   140003109:	4d 0f af c1          	imul   %r9,%r8
   14000310d:	49 c1 e8 21          	shr    $0x21,%r8
   140003111:	44 01 c0             	add    %r8d,%eax
   140003114:	44 8b 63 0c          	mov    0xc(%rbx),%r12d
   140003118:	41 39 c4             	cmp    %eax,%r12d
   14000311b:	41 0f 4d c4          	cmovge %r12d,%eax
   14000311f:	48 98                	cltq
   140003121:	48 83 c0 0f          	add    $0xf,%rax
   140003125:	48 83 e0 f0          	and    $0xfffffffffffffff0,%rax
   140003129:	e8 72 f9 ff ff       	call   140002aa0 <___chkstk_ms>
   14000312e:	45 31 c0             	xor    %r8d,%r8d
   140003131:	48 29 c4             	sub    %rax,%rsp
   140003134:	41 83 fe 6f          	cmp    $0x6f,%r14d
   140003138:	4c 8d 6c 24 20       	lea    0x20(%rsp),%r13
   14000313d:	41 0f 95 c0          	setne  %r8b
   140003141:	46 8d 04 c5 07 00 00 	lea    0x7(,%r8,8),%r8d
   140003148:	00 
   140003149:	4c 89 ee             	mov    %r13,%rsi
   14000314c:	48 85 d2             	test   %rdx,%rdx
   14000314f:	75 74                	jne    1400031c5 <__pformat_xint.isra.0+0x115>
   140003151:	0f 1f 80 00 00 00 00 	nopl   0x0(%rax)
   140003158:	81 e7 ff f7 ff ff    	and    $0xfffff7ff,%edi
   14000315e:	89 7b 08             	mov    %edi,0x8(%rbx)
   140003161:	45 85 ff             	test   %r15d,%r15d
   140003164:	0f 8f a1 00 00 00    	jg     14000320b <__pformat_xint.isra.0+0x15b>
   14000316a:	41 83 fe 6f          	cmp    $0x6f,%r14d
   14000316e:	0f 85 c2 00 00 00    	jne    140003236 <__pformat_xint.isra.0+0x186>
   140003174:	f6 43 09 08          	testb  $0x8,0x9(%rbx)
   140003178:	0f 84 b8 00 00 00    	je     140003236 <__pformat_xint.isra.0+0x186>
   14000317e:	c6 06 30             	movb   $0x30,(%rsi)
   140003181:	48 83 c6 01          	add    $0x1,%rsi
   140003185:	e9 ac 00 00 00       	jmp    140003236 <__pformat_xint.isra.0+0x186>
   14000318a:	66 0f 1f 44 00 00    	nopw   0x0(%rax,%rax,1)
   140003190:	44 8b 63 0c          	mov    0xc(%rbx),%r12d
   140003194:	41 39 c4             	cmp    %eax,%r12d
   140003197:	41 0f 4d c4          	cmovge %r12d,%eax
   14000319b:	48 98                	cltq
   14000319d:	48 83 c0 0f          	add    $0xf,%rax
   1400031a1:	48 83 e0 f0          	and    $0xfffffffffffffff0,%rax
   1400031a5:	e8 f6 f8 ff ff       	call   140002aa0 <___chkstk_ms>
   1400031aa:	b9 04 00 00 00       	mov    $0x4,%ecx
   1400031af:	41 b8 0f 00 00 00    	mov    $0xf,%r8d
   1400031b5:	48 29 c4             	sub    %rax,%rsp
   1400031b8:	4c 8d 6c 24 20       	lea    0x20(%rsp),%r13
   1400031bd:	4c 89 ee             	mov    %r13,%rsi
   1400031c0:	48 85 d2             	test   %rdx,%rdx
   1400031c3:	74 93                	je     140003158 <__pformat_xint.isra.0+0xa8>
   1400031c5:	45 89 f1             	mov    %r14d,%r9d
   1400031c8:	41 83 e1 20          	and    $0x20,%r9d
   1400031cc:	0f 1f 40 00          	nopl   0x0(%rax)
   1400031d0:	44 89 c0             	mov    %r8d,%eax
   1400031d3:	48 83 c6 01          	add    $0x1,%rsi
   1400031d7:	21 d0                	and    %edx,%eax
   1400031d9:	44 8d 50 30          	lea    0x30(%rax),%r10d
   1400031dd:	83 c0 37             	add    $0x37,%eax
   1400031e0:	44 09 c8             	or     %r9d,%eax
   1400031e3:	45 89 d3             	mov    %r10d,%r11d
   1400031e6:	41 80 fa 39          	cmp    $0x39,%r10b
   1400031ea:	41 0f 46 c3          	cmovbe %r11d,%eax
   1400031ee:	48 d3 ea             	shr    %cl,%rdx
   1400031f1:	88 46 ff             	mov    %al,-0x1(%rsi)
   1400031f4:	48 85 d2             	test   %rdx,%rdx
   1400031f7:	75 d7                	jne    1400031d0 <__pformat_xint.isra.0+0x120>
   1400031f9:	4c 39 ee             	cmp    %r13,%rsi
   1400031fc:	0f 84 56 ff ff ff    	je     140003158 <__pformat_xint.isra.0+0xa8>
   140003202:	45 85 ff             	test   %r15d,%r15d
   140003205:	0f 8e 5f ff ff ff    	jle    14000316a <__pformat_xint.isra.0+0xba>
   14000320b:	48 89 f0             	mov    %rsi,%rax
   14000320e:	45 89 f8             	mov    %r15d,%r8d
   140003211:	4c 29 e8             	sub    %r13,%rax
   140003214:	41 29 c0             	sub    %eax,%r8d
   140003217:	45 85 c0             	test   %r8d,%r8d
   14000321a:	0f 8e f0 01 00 00    	jle    140003410 <__pformat_xint.isra.0+0x360>
   140003220:	49 63 f8             	movslq %r8d,%rdi
   140003223:	48 89 f1             	mov    %rsi,%rcx
   140003226:	ba 30 00 00 00       	mov    $0x30,%edx
   14000322b:	49 89 f8             	mov    %rdi,%r8
   14000322e:	48 01 fe             	add    %rdi,%rsi
   140003231:	e8 8a 4e 00 00       	call   1400080c0 <memset>
   140003236:	4c 39 ee             	cmp    %r13,%rsi
   140003239:	75 09                	jne    140003244 <__pformat_xint.isra.0+0x194>
   14000323b:	45 85 ff             	test   %r15d,%r15d
   14000323e:	0f 85 94 02 00 00    	jne    1400034d8 <__pformat_xint.isra.0+0x428>
   140003244:	48 89 f0             	mov    %rsi,%rax
   140003247:	4c 29 e8             	sub    %r13,%rax
   14000324a:	44 39 e0             	cmp    %r12d,%eax
   14000324d:	7c 59                	jl     1400032a8 <__pformat_xint.isra.0+0x1f8>
   14000324f:	c7 43 0c ff ff ff ff 	movl   $0xffffffff,0xc(%rbx)
   140003256:	41 83 fe 6f          	cmp    $0x6f,%r14d
   14000325a:	0f 84 90 02 00 00    	je     1400034f0 <__pformat_xint.isra.0+0x440>
   140003260:	f6 43 09 08          	testb  $0x8,0x9(%rbx)
   140003264:	74 0b                	je     140003271 <__pformat_xint.isra.0+0x1c1>
   140003266:	44 88 36             	mov    %r14b,(%rsi)
   140003269:	48 83 c6 02          	add    $0x2,%rsi
   14000326d:	c6 46 ff 30          	movb   $0x30,-0x1(%rsi)
   140003271:	41 bc ff ff ff ff    	mov    $0xffffffff,%r12d
   140003277:	49 39 f5             	cmp    %rsi,%r13
   14000327a:	73 14                	jae    140003290 <__pformat_xint.isra.0+0x1e0>
   14000327c:	8b 7b 08             	mov    0x8(%rbx),%edi
   14000327f:	45 8d 74 24 ff       	lea    -0x1(%r12),%r14d
   140003284:	e9 b7 00 00 00       	jmp    140003340 <__pformat_xint.isra.0+0x290>
   140003289:	0f 1f 80 00 00 00 00 	nopl   0x0(%rax)
   140003290:	48 8d 65 08          	lea    0x8(%rbp),%rsp
   140003294:	5b                   	pop    %rbx
   140003295:	5e                   	pop    %rsi
   140003296:	5f                   	pop    %rdi
   140003297:	41 5c                	pop    %r12
   140003299:	41 5d                	pop    %r13
   14000329b:	41 5e                	pop    %r14
   14000329d:	41 5f                	pop    %r15
   14000329f:	5d                   	pop    %rbp
   1400032a0:	c3                   	ret
   1400032a1:	0f 1f 80 00 00 00 00 	nopl   0x0(%rax)
   1400032a8:	41 29 c4             	sub    %eax,%r12d
   1400032ab:	8b 7b 08             	mov    0x8(%rbx),%edi
   1400032ae:	44 89 63 0c          	mov    %r12d,0xc(%rbx)
   1400032b2:	41 83 fe 6f          	cmp    $0x6f,%r14d
   1400032b6:	74 28                	je     1400032e0 <__pformat_xint.isra.0+0x230>
   1400032b8:	f7 c7 00 08 00 00    	test   $0x800,%edi
   1400032be:	74 20                	je     1400032e0 <__pformat_xint.isra.0+0x230>
   1400032c0:	41 83 ec 02          	sub    $0x2,%r12d
   1400032c4:	45 85 e4             	test   %r12d,%r12d
   1400032c7:	0f 8f 4c 02 00 00    	jg     140003519 <__pformat_xint.isra.0+0x469>
   1400032cd:	44 88 36             	mov    %r14b,(%rsi)
   1400032d0:	48 83 c6 02          	add    $0x2,%rsi
   1400032d4:	c6 46 ff 30          	movb   $0x30,-0x1(%rsi)
   1400032d8:	eb 9d                	jmp    140003277 <__pformat_xint.isra.0+0x1c7>
   1400032da:	66 0f 1f 44 00 00    	nopw   0x0(%rax,%rax,1)
   1400032e0:	45 85 ff             	test   %r15d,%r15d
   1400032e3:	0f 88 9f 01 00 00    	js     140003488 <__pformat_xint.isra.0+0x3d8>
   1400032e9:	45 8d 74 24 ff       	lea    -0x1(%r12),%r14d
   1400032ee:	f7 c7 00 04 00 00    	test   $0x400,%edi
   1400032f4:	0f 85 06 01 00 00    	jne    140003400 <__pformat_xint.isra.0+0x350>
   1400032fa:	45 89 f4             	mov    %r14d,%r12d
   1400032fd:	0f 1f 00             	nopl   (%rax)
   140003300:	48 89 da             	mov    %rbx,%rdx
   140003303:	b9 20 00 00 00       	mov    $0x20,%ecx
   140003308:	e8 73 f9 ff ff       	call   140002c80 <__pformat_putc>
   14000330d:	41 83 ec 01          	sub    $0x1,%r12d
   140003311:	73 ed                	jae    140003300 <__pformat_xint.isra.0+0x250>
   140003313:	41 be fe ff ff ff    	mov    $0xfffffffe,%r14d
   140003319:	49 39 f5             	cmp    %rsi,%r13
   14000331c:	72 1f                	jb     14000333d <__pformat_xint.isra.0+0x28d>
   14000331e:	e9 6d ff ff ff       	jmp    140003290 <__pformat_xint.isra.0+0x1e0>
   140003323:	0f 1f 44 00 00       	nopl   0x0(%rax,%rax,1)
   140003328:	48 63 43 24          	movslq 0x24(%rbx),%rax
   14000332c:	88 0c 02             	mov    %cl,(%rdx,%rax,1)
   14000332f:	8b 43 24             	mov    0x24(%rbx),%eax
   140003332:	83 c0 01             	add    $0x1,%eax
   140003335:	89 43 24             	mov    %eax,0x24(%rbx)
   140003338:	49 39 f5             	cmp    %rsi,%r13
   14000333b:	73 38                	jae    140003375 <__pformat_xint.isra.0+0x2c5>
   14000333d:	8b 7b 08             	mov    0x8(%rbx),%edi
   140003340:	48 83 ee 01          	sub    $0x1,%rsi
   140003344:	f7 c7 00 40 00 00    	test   $0x4000,%edi
   14000334a:	75 08                	jne    140003354 <__pformat_xint.isra.0+0x2a4>
   14000334c:	8b 43 24             	mov    0x24(%rbx),%eax
   14000334f:	39 43 28             	cmp    %eax,0x28(%rbx)
   140003352:	7e de                	jle    140003332 <__pformat_xint.isra.0+0x282>
   140003354:	81 e7 00 20 00 00    	and    $0x2000,%edi
   14000335a:	0f be 0e             	movsbl (%rsi),%ecx
   14000335d:	48 8b 13             	mov    (%rbx),%rdx
   140003360:	74 c6                	je     140003328 <__pformat_xint.isra.0+0x278>
   140003362:	e8 29 4d 00 00       	call   140008090 <fputc>
   140003367:	8b 43 24             	mov    0x24(%rbx),%eax
   14000336a:	83 c0 01             	add    $0x1,%eax
   14000336d:	89 43 24             	mov    %eax,0x24(%rbx)
   140003370:	49 39 f5             	cmp    %rsi,%r13
   140003373:	72 c8                	jb     14000333d <__pformat_xint.isra.0+0x28d>
   140003375:	45 85 e4             	test   %r12d,%r12d
   140003378:	7f 27                	jg     1400033a1 <__pformat_xint.isra.0+0x2f1>
   14000337a:	e9 11 ff ff ff       	jmp    140003290 <__pformat_xint.isra.0+0x1e0>
   14000337f:	90                   	nop
   140003380:	48 63 43 24          	movslq 0x24(%rbx),%rax
   140003384:	c6 04 02 20          	movb   $0x20,(%rdx,%rax,1)
   140003388:	8b 43 24             	mov    0x24(%rbx),%eax
   14000338b:	83 c0 01             	add    $0x1,%eax
   14000338e:	89 43 24             	mov    %eax,0x24(%rbx)
   140003391:	41 8d 46 ff          	lea    -0x1(%r14),%eax
   140003395:	45 85 f6             	test   %r14d,%r14d
   140003398:	0f 8e f2 fe ff ff    	jle    140003290 <__pformat_xint.isra.0+0x1e0>
   14000339e:	41 89 c6             	mov    %eax,%r14d
   1400033a1:	8b 7b 08             	mov    0x8(%rbx),%edi
   1400033a4:	f7 c7 00 40 00 00    	test   $0x4000,%edi
   1400033aa:	75 08                	jne    1400033b4 <__pformat_xint.isra.0+0x304>
   1400033ac:	8b 43 24             	mov    0x24(%rbx),%eax
   1400033af:	39 43 28             	cmp    %eax,0x28(%rbx)
   1400033b2:	7e d7                	jle    14000338b <__pformat_xint.isra.0+0x2db>
   1400033b4:	81 e7 00 20 00 00    	and    $0x2000,%edi
   1400033ba:	48 8b 13             	mov    (%rbx),%rdx
   1400033bd:	74 c1                	je     140003380 <__pformat_xint.isra.0+0x2d0>
   1400033bf:	b9 20 00 00 00       	mov    $0x20,%ecx
   1400033c4:	e8 c7 4c 00 00       	call   140008090 <fputc>
   1400033c9:	8b 43 24             	mov    0x24(%rbx),%eax
   1400033cc:	eb bd                	jmp    14000338b <__pformat_xint.isra.0+0x2db>
   1400033ce:	66 90                	xchg   %ax,%ax
   1400033d0:	45 8b 78 10          	mov    0x10(%r8),%r15d
   1400033d4:	31 c0                	xor    %eax,%eax
   1400033d6:	41 8b 78 08          	mov    0x8(%r8),%edi
   1400033da:	45 85 ff             	test   %r15d,%r15d
   1400033dd:	41 0f 49 c7          	cmovns %r15d,%eax
   1400033e1:	83 c0 18             	add    $0x18,%eax
   1400033e4:	f7 c7 00 10 00 00    	test   $0x1000,%edi
   1400033ea:	74 64                	je     140003450 <__pformat_xint.isra.0+0x3a0>
   1400033ec:	b9 03 00 00 00       	mov    $0x3,%ecx
   1400033f1:	e9 03 fd ff ff       	jmp    1400030f9 <__pformat_xint.isra.0+0x49>
   1400033f6:	66 2e 0f 1f 84 00 00 	cs nopw 0x0(%rax,%rax,1)
   1400033fd:	00 00 00 
   140003400:	49 39 f5             	cmp    %rsi,%r13
   140003403:	0f 82 37 ff ff ff    	jb     140003340 <__pformat_xint.isra.0+0x290>
   140003409:	eb 99                	jmp    1400033a4 <__pformat_xint.isra.0+0x2f4>
   14000340b:	0f 1f 44 00 00       	nopl   0x0(%rax,%rax,1)
   140003410:	41 83 fe 6f          	cmp    $0x6f,%r14d
   140003414:	0f 84 5a fd ff ff    	je     140003174 <__pformat_xint.isra.0+0xc4>
   14000341a:	4c 39 ee             	cmp    %r13,%rsi
   14000341d:	0f 84 b5 00 00 00    	je     1400034d8 <__pformat_xint.isra.0+0x428>
   140003423:	44 39 e0             	cmp    %r12d,%eax
   140003426:	0f 8d e1 00 00 00    	jge    14000350d <__pformat_xint.isra.0+0x45d>
   14000342c:	8b 7b 08             	mov    0x8(%rbx),%edi
   14000342f:	41 29 c4             	sub    %eax,%r12d
   140003432:	44 89 63 0c          	mov    %r12d,0xc(%rbx)
   140003436:	f7 c7 00 08 00 00    	test   $0x800,%edi
   14000343c:	0f 85 7e fe ff ff    	jne    1400032c0 <__pformat_xint.isra.0+0x210>
   140003442:	e9 a2 fe ff ff       	jmp    1400032e9 <__pformat_xint.isra.0+0x239>
   140003447:	66 0f 1f 84 00 00 00 	nopw   0x0(%rax,%rax,1)
   14000344e:	00 00 
   140003450:	44 8b 63 0c          	mov    0xc(%rbx),%r12d
   140003454:	41 39 c4             	cmp    %eax,%r12d
   140003457:	41 0f 4d c4          	cmovge %r12d,%eax
   14000345b:	48 98                	cltq
   14000345d:	48 83 c0 0f          	add    $0xf,%rax
   140003461:	48 83 e0 f0          	and    $0xfffffffffffffff0,%rax
   140003465:	e8 36 f6 ff ff       	call   140002aa0 <___chkstk_ms>
   14000346a:	b9 03 00 00 00       	mov    $0x3,%ecx
   14000346f:	41 b8 07 00 00 00    	mov    $0x7,%r8d
   140003475:	48 29 c4             	sub    %rax,%rsp
   140003478:	4c 8d 6c 24 20       	lea    0x20(%rsp),%r13
   14000347d:	e9 3b fd ff ff       	jmp    1400031bd <__pformat_xint.isra.0+0x10d>
   140003482:	66 0f 1f 44 00 00    	nopw   0x0(%rax,%rax,1)
   140003488:	89 f8                	mov    %edi,%eax
   14000348a:	25 00 06 00 00       	and    $0x600,%eax
   14000348f:	3d 00 02 00 00       	cmp    $0x200,%eax
   140003494:	0f 85 4f fe ff ff    	jne    1400032e9 <__pformat_xint.isra.0+0x239>
   14000349a:	4d 63 e4             	movslq %r12d,%r12
   14000349d:	48 89 f1             	mov    %rsi,%rcx
   1400034a0:	ba 30 00 00 00       	mov    $0x30,%edx
   1400034a5:	4d 89 e0             	mov    %r12,%r8
   1400034a8:	4c 01 e6             	add    %r12,%rsi
   1400034ab:	e8 10 4c 00 00       	call   1400080c0 <memset>
   1400034b0:	41 83 fe 6f          	cmp    $0x6f,%r14d
   1400034b4:	0f 84 b7 fd ff ff    	je     140003271 <__pformat_xint.isra.0+0x1c1>
   1400034ba:	81 e7 00 08 00 00    	and    $0x800,%edi
   1400034c0:	41 bc ff ff ff ff    	mov    $0xffffffff,%r12d
   1400034c6:	0f 84 ab fd ff ff    	je     140003277 <__pformat_xint.isra.0+0x1c7>
   1400034cc:	e9 fc fd ff ff       	jmp    1400032cd <__pformat_xint.isra.0+0x21d>
   1400034d1:	0f 1f 80 00 00 00 00 	nopl   0x0(%rax)
   1400034d8:	48 8d 56 01          	lea    0x1(%rsi),%rdx
   1400034dc:	c6 06 30             	movb   $0x30,(%rsi)
   1400034df:	48 89 d0             	mov    %rdx,%rax
   1400034e2:	48 89 d6             	mov    %rdx,%rsi
   1400034e5:	4c 29 e8             	sub    %r13,%rax
   1400034e8:	e9 5d fd ff ff       	jmp    14000324a <__pformat_xint.isra.0+0x19a>
   1400034ed:	0f 1f 00             	nopl   (%rax)
   1400034f0:	49 39 f5             	cmp    %rsi,%r13
   1400034f3:	0f 83 97 fd ff ff    	jae    140003290 <__pformat_xint.isra.0+0x1e0>
   1400034f9:	8b 7b 08             	mov    0x8(%rbx),%edi
   1400034fc:	41 be fe ff ff ff    	mov    $0xfffffffe,%r14d
   140003502:	41 bc ff ff ff ff    	mov    $0xffffffff,%r12d
   140003508:	e9 33 fe ff ff       	jmp    140003340 <__pformat_xint.isra.0+0x290>
   14000350d:	c7 43 0c ff ff ff ff 	movl   $0xffffffff,0xc(%rbx)
   140003514:	e9 47 fd ff ff       	jmp    140003260 <__pformat_xint.isra.0+0x1b0>
   140003519:	45 85 ff             	test   %r15d,%r15d
   14000351c:	78 10                	js     14000352e <__pformat_xint.isra.0+0x47e>
   14000351e:	44 88 36             	mov    %r14b,(%rsi)
   140003521:	48 83 c6 02          	add    $0x2,%rsi
   140003525:	c6 46 ff 30          	movb   $0x30,-0x1(%rsi)
   140003529:	e9 bb fd ff ff       	jmp    1400032e9 <__pformat_xint.isra.0+0x239>
   14000352e:	89 f8                	mov    %edi,%eax
   140003530:	25 00 06 00 00       	and    $0x600,%eax
   140003535:	3d 00 02 00 00       	cmp    $0x200,%eax
   14000353a:	75 e2                	jne    14000351e <__pformat_xint.isra.0+0x46e>
   14000353c:	4d 63 e4             	movslq %r12d,%r12
   14000353f:	48 89 f1             	mov    %rsi,%rcx
   140003542:	ba 30 00 00 00       	mov    $0x30,%edx
   140003547:	4d 89 e0             	mov    %r12,%r8
   14000354a:	4c 01 e6             	add    %r12,%rsi
   14000354d:	e8 6e 4b 00 00       	call   1400080c0 <memset>
   140003552:	e9 63 ff ff ff       	jmp    1400034ba <__pformat_xint.isra.0+0x40a>
   140003557:	66 0f 1f 84 00 00 00 	nopw   0x0(%rax,%rax,1)
   14000355e:	00 00 

0000000140003560 <__pformat_int.isra.0>:
   140003560:	55                   	push   %rbp
   140003561:	41 57                	push   %r15
   140003563:	41 56                	push   %r14
   140003565:	41 55                	push   %r13
   140003567:	41 54                	push   %r12
   140003569:	57                   	push   %rdi
   14000356a:	56                   	push   %rsi
   14000356b:	53                   	push   %rbx
   14000356c:	48 83 ec 28          	sub    $0x28,%rsp
   140003570:	48 8d 6c 24 20       	lea    0x20(%rsp),%rbp
   140003575:	31 c0                	xor    %eax,%eax
   140003577:	44 8b 72 10          	mov    0x10(%rdx),%r14d
   14000357b:	44 8b 62 08          	mov    0x8(%rdx),%r12d
   14000357f:	45 85 f6             	test   %r14d,%r14d
   140003582:	41 0f 49 c6          	cmovns %r14d,%eax
   140003586:	48 89 d3             	mov    %rdx,%rbx
   140003589:	83 c0 17             	add    $0x17,%eax
   14000358c:	41 f7 c4 00 10 00 00 	test   $0x1000,%r12d
   140003593:	74 0b                	je     1400035a0 <__pformat_int.isra.0+0x40>
   140003595:	66 83 7a 20 00       	cmpw   $0x0,0x20(%rdx)
   14000359a:	0f 85 48 02 00 00    	jne    1400037e8 <__pformat_int.isra.0+0x288>
   1400035a0:	8b 73 0c             	mov    0xc(%rbx),%esi
   1400035a3:	39 c6                	cmp    %eax,%esi
   1400035a5:	0f 4d c6             	cmovge %esi,%eax
   1400035a8:	48 98                	cltq
   1400035aa:	48 83 c0 0f          	add    $0xf,%rax
   1400035ae:	48 83 e0 f0          	and    $0xfffffffffffffff0,%rax
   1400035b2:	e8 e9 f4 ff ff       	call   140002aa0 <___chkstk_ms>
   1400035b7:	48 29 c4             	sub    %rax,%rsp
   1400035ba:	4c 8d 6c 24 20       	lea    0x20(%rsp),%r13
   1400035bf:	41 f6 c4 80          	test   $0x80,%r12b
   1400035c3:	74 11                	je     1400035d6 <__pformat_int.isra.0+0x76>
   1400035c5:	48 85 c9             	test   %rcx,%rcx
   1400035c8:	0f 88 72 02 00 00    	js     140003840 <__pformat_int.isra.0+0x2e0>
   1400035ce:	41 80 e4 7f          	and    $0x7f,%r12b
   1400035d2:	44 89 63 08          	mov    %r12d,0x8(%rbx)
   1400035d6:	4c 89 ef             	mov    %r13,%rdi
   1400035d9:	48 85 c9             	test   %rcx,%rcx
   1400035dc:	0f 84 8e 00 00 00    	je     140003670 <__pformat_int.isra.0+0x110>
   1400035e2:	49 b9 cd cc cc cc cc 	movabs $0xcccccccccccccccd,%r9
   1400035e9:	cc cc cc 
   1400035ec:	45 89 e2             	mov    %r12d,%r10d
   1400035ef:	4d 89 e8             	mov    %r13,%r8
   1400035f2:	49 bb 03 00 00 00 00 	movabs $0x8000000000000003,%r11
   1400035f9:	00 00 80 
   1400035fc:	41 81 e2 00 10 00 00 	and    $0x1000,%r10d
   140003603:	0f 1f 44 00 00       	nopl   0x0(%rax,%rax,1)
   140003608:	48 89 c8             	mov    %rcx,%rax
   14000360b:	49 8d 78 01          	lea    0x1(%r8),%rdi
   14000360f:	49 f7 e1             	mul    %r9
   140003612:	48 89 c8             	mov    %rcx,%rax
   140003615:	48 c1 ea 03          	shr    $0x3,%rdx
   140003619:	4c 8d 3c 92          	lea    (%rdx,%rdx,4),%r15
   14000361d:	4d 01 ff             	add    %r15,%r15
   140003620:	4c 29 f8             	sub    %r15,%rax
   140003623:	83 c0 30             	add    $0x30,%eax
   140003626:	41 88 00             	mov    %al,(%r8)
   140003629:	48 83 f9 09          	cmp    $0x9,%rcx
   14000362d:	76 41                	jbe    140003670 <__pformat_int.isra.0+0x110>
   14000362f:	49 39 fd             	cmp    %rdi,%r13
   140003632:	74 2c                	je     140003660 <__pformat_int.isra.0+0x100>
   140003634:	45 85 d2             	test   %r10d,%r10d
   140003637:	74 27                	je     140003660 <__pformat_int.isra.0+0x100>
   140003639:	66 83 7b 20 00       	cmpw   $0x0,0x20(%rbx)
   14000363e:	74 20                	je     140003660 <__pformat_int.isra.0+0x100>
   140003640:	48 89 f8             	mov    %rdi,%rax
   140003643:	4c 29 e8             	sub    %r13,%rax
   140003646:	4c 21 d8             	and    %r11,%rax
   140003649:	48 83 f8 03          	cmp    $0x3,%rax
   14000364d:	75 11                	jne    140003660 <__pformat_int.isra.0+0x100>
   14000364f:	c6 07 2c             	movb   $0x2c,(%rdi)
   140003652:	49 8d 78 02          	lea    0x2(%r8),%rdi
   140003656:	66 2e 0f 1f 84 00 00 	cs nopw 0x0(%rax,%rax,1)
   14000365d:	00 00 00 
   140003660:	48 89 d1             	mov    %rdx,%rcx
   140003663:	49 89 f8             	mov    %rdi,%r8
   140003666:	eb a0                	jmp    140003608 <__pformat_int.isra.0+0xa8>
   140003668:	0f 1f 84 00 00 00 00 	nopl   0x0(%rax,%rax,1)
   14000366f:	00 
   140003670:	45 85 f6             	test   %r14d,%r14d
   140003673:	7e 2b                	jle    1400036a0 <__pformat_int.isra.0+0x140>
   140003675:	48 89 f8             	mov    %rdi,%rax
   140003678:	45 89 f0             	mov    %r14d,%r8d
   14000367b:	4c 29 e8             	sub    %r13,%rax
   14000367e:	41 29 c0             	sub    %eax,%r8d
   140003681:	45 85 c0             	test   %r8d,%r8d
   140003684:	0f 8e 96 01 00 00    	jle    140003820 <__pformat_int.isra.0+0x2c0>
   14000368a:	4d 63 f8             	movslq %r8d,%r15
   14000368d:	48 89 f9             	mov    %rdi,%rcx
   140003690:	ba 30 00 00 00       	mov    $0x30,%edx
   140003695:	4d 89 f8             	mov    %r15,%r8
   140003698:	4c 01 ff             	add    %r15,%rdi
   14000369b:	e8 20 4a 00 00       	call   1400080c0 <memset>
   1400036a0:	49 39 fd             	cmp    %rdi,%r13
   1400036a3:	75 0c                	jne    1400036b1 <__pformat_int.isra.0+0x151>
   1400036a5:	48 89 f8             	mov    %rdi,%rax
   1400036a8:	45 85 f6             	test   %r14d,%r14d
   1400036ab:	0f 85 7b 01 00 00    	jne    14000382c <__pformat_int.isra.0+0x2cc>
   1400036b1:	85 f6                	test   %esi,%esi
   1400036b3:	7e 3b                	jle    1400036f0 <__pformat_int.isra.0+0x190>
   1400036b5:	48 89 f8             	mov    %rdi,%rax
   1400036b8:	4c 29 e8             	sub    %r13,%rax
   1400036bb:	29 c6                	sub    %eax,%esi
   1400036bd:	89 73 0c             	mov    %esi,0xc(%rbx)
   1400036c0:	85 f6                	test   %esi,%esi
   1400036c2:	7e 2c                	jle    1400036f0 <__pformat_int.isra.0+0x190>
   1400036c4:	41 f7 c4 c0 01 00 00 	test   $0x1c0,%r12d
   1400036cb:	0f 85 7f 01 00 00    	jne    140003850 <__pformat_int.isra.0+0x2f0>
   1400036d1:	45 85 f6             	test   %r14d,%r14d
   1400036d4:	0f 88 85 01 00 00    	js     14000385f <__pformat_int.isra.0+0x2ff>
   1400036da:	41 f7 c4 00 04 00 00 	test   $0x400,%r12d
   1400036e1:	0f 84 c1 01 00 00    	je     1400038a8 <__pformat_int.isra.0+0x348>
   1400036e7:	66 0f 1f 84 00 00 00 	nopw   0x0(%rax,%rax,1)
   1400036ee:	00 00 
   1400036f0:	41 f6 c4 80          	test   $0x80,%r12b
   1400036f4:	0f 84 d6 00 00 00    	je     1400037d0 <__pformat_int.isra.0+0x270>
   1400036fa:	c6 07 2d             	movb   $0x2d,(%rdi)
   1400036fd:	48 8d 77 01          	lea    0x1(%rdi),%rsi
   140003701:	49 39 f5             	cmp    %rsi,%r13
   140003704:	72 23                	jb     140003729 <__pformat_int.isra.0+0x1c9>
   140003706:	eb 58                	jmp    140003760 <__pformat_int.isra.0+0x200>
   140003708:	0f 1f 84 00 00 00 00 	nopl   0x0(%rax,%rax,1)
   14000370f:	00 
   140003710:	48 63 43 24          	movslq 0x24(%rbx),%rax
   140003714:	88 0c 02             	mov    %cl,(%rdx,%rax,1)
   140003717:	8b 43 24             	mov    0x24(%rbx),%eax
   14000371a:	83 c0 01             	add    $0x1,%eax
   14000371d:	89 43 24             	mov    %eax,0x24(%rbx)
   140003720:	49 39 f5             	cmp    %rsi,%r13
   140003723:	74 3b                	je     140003760 <__pformat_int.isra.0+0x200>
   140003725:	44 8b 63 08          	mov    0x8(%rbx),%r12d
   140003729:	48 83 ee 01          	sub    $0x1,%rsi
   14000372d:	41 f7 c4 00 40 00 00 	test   $0x4000,%r12d
   140003734:	75 08                	jne    14000373e <__pformat_int.isra.0+0x1de>
   140003736:	8b 43 24             	mov    0x24(%rbx),%eax
   140003739:	39 43 28             	cmp    %eax,0x28(%rbx)
   14000373c:	7e dc                	jle    14000371a <__pformat_int.isra.0+0x1ba>
   14000373e:	41 81 e4 00 20 00 00 	and    $0x2000,%r12d
   140003745:	0f be 0e             	movsbl (%rsi),%ecx
   140003748:	48 8b 13             	mov    (%rbx),%rdx
   14000374b:	74 c3                	je     140003710 <__pformat_int.isra.0+0x1b0>
   14000374d:	e8 3e 49 00 00       	call   140008090 <fputc>
   140003752:	8b 43 24             	mov    0x24(%rbx),%eax
   140003755:	83 c0 01             	add    $0x1,%eax
   140003758:	89 43 24             	mov    %eax,0x24(%rbx)
   14000375b:	49 39 f5             	cmp    %rsi,%r13
   14000375e:	75 c5                	jne    140003725 <__pformat_int.isra.0+0x1c5>
   140003760:	8b 43 0c             	mov    0xc(%rbx),%eax
   140003763:	eb 17                	jmp    14000377c <__pformat_int.isra.0+0x21c>
   140003765:	0f 1f 00             	nopl   (%rax)
   140003768:	48 63 43 24          	movslq 0x24(%rbx),%rax
   14000376c:	c6 04 02 20          	movb   $0x20,(%rdx,%rax,1)
   140003770:	8b 53 24             	mov    0x24(%rbx),%edx
   140003773:	8b 43 0c             	mov    0xc(%rbx),%eax
   140003776:	83 c2 01             	add    $0x1,%edx
   140003779:	89 53 24             	mov    %edx,0x24(%rbx)
   14000377c:	89 c2                	mov    %eax,%edx
   14000377e:	83 e8 01             	sub    $0x1,%eax
   140003781:	89 43 0c             	mov    %eax,0xc(%rbx)
   140003784:	85 d2                	test   %edx,%edx
   140003786:	7e 30                	jle    1400037b8 <__pformat_int.isra.0+0x258>
   140003788:	8b 4b 08             	mov    0x8(%rbx),%ecx
   14000378b:	f6 c5 40             	test   $0x40,%ch
   14000378e:	75 08                	jne    140003798 <__pformat_int.isra.0+0x238>
   140003790:	8b 53 24             	mov    0x24(%rbx),%edx
   140003793:	39 53 28             	cmp    %edx,0x28(%rbx)
   140003796:	7e de                	jle    140003776 <__pformat_int.isra.0+0x216>
   140003798:	48 8b 13             	mov    (%rbx),%rdx
   14000379b:	80 e5 20             	and    $0x20,%ch
   14000379e:	74 c8                	je     140003768 <__pformat_int.isra.0+0x208>
   1400037a0:	b9 20 00 00 00       	mov    $0x20,%ecx
   1400037a5:	e8 e6 48 00 00       	call   140008090 <fputc>
   1400037aa:	8b 53 24             	mov    0x24(%rbx),%edx
   1400037ad:	8b 43 0c             	mov    0xc(%rbx),%eax
   1400037b0:	eb c4                	jmp    140003776 <__pformat_int.isra.0+0x216>
   1400037b2:	66 0f 1f 44 00 00    	nopw   0x0(%rax,%rax,1)
   1400037b8:	48 8d 65 08          	lea    0x8(%rbp),%rsp
   1400037bc:	5b                   	pop    %rbx
   1400037bd:	5e                   	pop    %rsi
   1400037be:	5f                   	pop    %rdi
   1400037bf:	41 5c                	pop    %r12
   1400037c1:	41 5d                	pop    %r13
   1400037c3:	41 5e                	pop    %r14
   1400037c5:	41 5f                	pop    %r15
   1400037c7:	5d                   	pop    %rbp
   1400037c8:	c3                   	ret
   1400037c9:	0f 1f 80 00 00 00 00 	nopl   0x0(%rax)
   1400037d0:	41 f7 c4 00 01 00 00 	test   $0x100,%r12d
   1400037d7:	74 27                	je     140003800 <__pformat_int.isra.0+0x2a0>
   1400037d9:	c6 07 2b             	movb   $0x2b,(%rdi)
   1400037dc:	48 8d 77 01          	lea    0x1(%rdi),%rsi
   1400037e0:	e9 1c ff ff ff       	jmp    140003701 <__pformat_int.isra.0+0x1a1>
   1400037e5:	0f 1f 00             	nopl   (%rax)
   1400037e8:	89 c2                	mov    %eax,%edx
   1400037ea:	41 b8 ab aa aa aa    	mov    $0xaaaaaaab,%r8d
   1400037f0:	49 0f af d0          	imul   %r8,%rdx
   1400037f4:	48 c1 ea 21          	shr    $0x21,%rdx
   1400037f8:	01 d0                	add    %edx,%eax
   1400037fa:	e9 a1 fd ff ff       	jmp    1400035a0 <__pformat_int.isra.0+0x40>
   1400037ff:	90                   	nop
   140003800:	48 89 fe             	mov    %rdi,%rsi
   140003803:	41 f6 c4 40          	test   $0x40,%r12b
   140003807:	0f 84 f4 fe ff ff    	je     140003701 <__pformat_int.isra.0+0x1a1>
   14000380d:	c6 07 20             	movb   $0x20,(%rdi)
   140003810:	48 83 c6 01          	add    $0x1,%rsi
   140003814:	e9 e8 fe ff ff       	jmp    140003701 <__pformat_int.isra.0+0x1a1>
   140003819:	0f 1f 80 00 00 00 00 	nopl   0x0(%rax)
   140003820:	49 39 fd             	cmp    %rdi,%r13
   140003823:	0f 85 88 fe ff ff    	jne    1400036b1 <__pformat_int.isra.0+0x151>
   140003829:	4c 89 e8             	mov    %r13,%rax
   14000382c:	c6 00 30             	movb   $0x30,(%rax)
   14000382f:	48 8d 78 01          	lea    0x1(%rax),%rdi
   140003833:	e9 79 fe ff ff       	jmp    1400036b1 <__pformat_int.isra.0+0x151>
   140003838:	0f 1f 84 00 00 00 00 	nopl   0x0(%rax,%rax,1)
   14000383f:	00 
   140003840:	48 f7 d9             	neg    %rcx
   140003843:	e9 9a fd ff ff       	jmp    1400035e2 <__pformat_int.isra.0+0x82>
   140003848:	0f 1f 84 00 00 00 00 	nopl   0x0(%rax,%rax,1)
   14000384f:	00 
   140003850:	83 ee 01             	sub    $0x1,%esi
   140003853:	89 73 0c             	mov    %esi,0xc(%rbx)
   140003856:	45 85 f6             	test   %r14d,%r14d
   140003859:	0f 89 7b fe ff ff    	jns    1400036da <__pformat_int.isra.0+0x17a>
   14000385f:	44 89 e0             	mov    %r12d,%eax
   140003862:	25 00 06 00 00       	and    $0x600,%eax
   140003867:	3d 00 02 00 00       	cmp    $0x200,%eax
   14000386c:	0f 85 68 fe ff ff    	jne    1400036da <__pformat_int.isra.0+0x17a>
   140003872:	8b 43 0c             	mov    0xc(%rbx),%eax
   140003875:	8d 50 ff             	lea    -0x1(%rax),%edx
   140003878:	89 53 0c             	mov    %edx,0xc(%rbx)
   14000387b:	85 c0                	test   %eax,%eax
   14000387d:	0f 8e 6d fe ff ff    	jle    1400036f0 <__pformat_int.isra.0+0x190>
   140003883:	48 63 f0             	movslq %eax,%rsi
   140003886:	48 89 f9             	mov    %rdi,%rcx
   140003889:	ba 30 00 00 00       	mov    $0x30,%edx
   14000388e:	49 89 f0             	mov    %rsi,%r8
   140003891:	48 01 f7             	add    %rsi,%rdi
   140003894:	e8 27 48 00 00       	call   1400080c0 <memset>
   140003899:	c7 43 0c ff ff ff ff 	movl   $0xffffffff,0xc(%rbx)
   1400038a0:	e9 4b fe ff ff       	jmp    1400036f0 <__pformat_int.isra.0+0x190>
   1400038a5:	0f 1f 00             	nopl   (%rax)
   1400038a8:	8b 43 0c             	mov    0xc(%rbx),%eax
   1400038ab:	8d 50 ff             	lea    -0x1(%rax),%edx
   1400038ae:	89 53 0c             	mov    %edx,0xc(%rbx)
   1400038b1:	85 c0                	test   %eax,%eax
   1400038b3:	0f 8e 37 fe ff ff    	jle    1400036f0 <__pformat_int.isra.0+0x190>
   1400038b9:	0f 1f 80 00 00 00 00 	nopl   0x0(%rax)
   1400038c0:	48 89 da             	mov    %rbx,%rdx
   1400038c3:	b9 20 00 00 00       	mov    $0x20,%ecx
   1400038c8:	e8 b3 f3 ff ff       	call   140002c80 <__pformat_putc>
   1400038cd:	8b 43 0c             	mov    0xc(%rbx),%eax
   1400038d0:	8d 50 ff             	lea    -0x1(%rax),%edx
   1400038d3:	89 53 0c             	mov    %edx,0xc(%rbx)
   1400038d6:	85 c0                	test   %eax,%eax
   1400038d8:	7f e6                	jg     1400038c0 <__pformat_int.isra.0+0x360>
   1400038da:	44 8b 63 08          	mov    0x8(%rbx),%r12d
   1400038de:	e9 0d fe ff ff       	jmp    1400036f0 <__pformat_int.isra.0+0x190>
   1400038e3:	66 66 2e 0f 1f 84 00 	data16 cs nopw 0x0(%rax,%rax,1)
   1400038ea:	00 00 00 00 
   1400038ee:	66 90                	xchg   %ax,%ax

00000001400038f0 <__pformat_emit_radix_point>:
   1400038f0:	55                   	push   %rbp
   1400038f1:	41 54                	push   %r12
   1400038f3:	57                   	push   %rdi
   1400038f4:	56                   	push   %rsi
   1400038f5:	53                   	push   %rbx
   1400038f6:	48 83 ec 30          	sub    $0x30,%rsp
   1400038fa:	48 8d 6c 24 30       	lea    0x30(%rsp),%rbp
   1400038ff:	83 79 14 fd          	cmpl   $0xfffffffd,0x14(%rcx)
   140003903:	48 89 cb             	mov    %rcx,%rbx
   140003906:	0f 84 d4 00 00 00    	je     1400039e0 <__pformat_emit_radix_point+0xf0>
   14000390c:	0f b7 51 18          	movzwl 0x18(%rcx),%edx
   140003910:	66 85 d2             	test   %dx,%dx
   140003913:	0f 84 a7 00 00 00    	je     1400039c0 <__pformat_emit_radix_point+0xd0>
   140003919:	48 63 43 14          	movslq 0x14(%rbx),%rax
   14000391d:	48 89 e7             	mov    %rsp,%rdi
   140003920:	48 83 c0 0f          	add    $0xf,%rax
   140003924:	48 83 e0 f0          	and    $0xfffffffffffffff0,%rax
   140003928:	e8 73 f1 ff ff       	call   140002aa0 <___chkstk_ms>
   14000392d:	48 29 c4             	sub    %rax,%rsp
   140003930:	48 c7 45 f8 00 00 00 	movq   $0x0,-0x8(%rbp)
   140003937:	00 
   140003938:	4c 8d 45 f8          	lea    -0x8(%rbp),%r8
   14000393c:	48 8d 74 24 20       	lea    0x20(%rsp),%rsi
   140003941:	48 89 f1             	mov    %rsi,%rcx
   140003944:	e8 37 42 00 00       	call   140007b80 <wcrtomb>
   140003949:	85 c0                	test   %eax,%eax
   14000394b:	0f 8e cf 00 00 00    	jle    140003a20 <__pformat_emit_radix_point+0x130>
   140003951:	83 e8 01             	sub    $0x1,%eax
   140003954:	4c 8d 64 06 01       	lea    0x1(%rsi,%rax,1),%r12
   140003959:	eb 1a                	jmp    140003975 <__pformat_emit_radix_point+0x85>
   14000395b:	0f 1f 44 00 00       	nopl   0x0(%rax,%rax,1)
   140003960:	48 63 53 24          	movslq 0x24(%rbx),%rdx
   140003964:	88 0c 10             	mov    %cl,(%rax,%rdx,1)
   140003967:	8b 43 24             	mov    0x24(%rbx),%eax
   14000396a:	83 c0 01             	add    $0x1,%eax
   14000396d:	89 43 24             	mov    %eax,0x24(%rbx)
   140003970:	49 39 f4             	cmp    %rsi,%r12
   140003973:	74 36                	je     1400039ab <__pformat_emit_radix_point+0xbb>
   140003975:	8b 53 08             	mov    0x8(%rbx),%edx
   140003978:	48 83 c6 01          	add    $0x1,%rsi
   14000397c:	f6 c6 40             	test   $0x40,%dh
   14000397f:	75 08                	jne    140003989 <__pformat_emit_radix_point+0x99>
   140003981:	8b 43 24             	mov    0x24(%rbx),%eax
   140003984:	39 43 28             	cmp    %eax,0x28(%rbx)
   140003987:	7e e1                	jle    14000396a <__pformat_emit_radix_point+0x7a>
   140003989:	0f be 4e ff          	movsbl -0x1(%rsi),%ecx
   14000398d:	48 8b 03             	mov    (%rbx),%rax
   140003990:	80 e6 20             	and    $0x20,%dh
   140003993:	74 cb                	je     140003960 <__pformat_emit_radix_point+0x70>
   140003995:	48 89 c2             	mov    %rax,%rdx
   140003998:	e8 f3 46 00 00       	call   140008090 <fputc>
   14000399d:	8b 43 24             	mov    0x24(%rbx),%eax
   1400039a0:	83 c0 01             	add    $0x1,%eax
   1400039a3:	89 43 24             	mov    %eax,0x24(%rbx)
   1400039a6:	49 39 f4             	cmp    %rsi,%r12
   1400039a9:	75 ca                	jne    140003975 <__pformat_emit_radix_point+0x85>
   1400039ab:	48 89 fc             	mov    %rdi,%rsp
   1400039ae:	48 89 ec             	mov    %rbp,%rsp
   1400039b1:	5b                   	pop    %rbx
   1400039b2:	5e                   	pop    %rsi
   1400039b3:	5f                   	pop    %rdi
   1400039b4:	41 5c                	pop    %r12
   1400039b6:	5d                   	pop    %rbp
   1400039b7:	c3                   	ret
   1400039b8:	0f 1f 84 00 00 00 00 	nopl   0x0(%rax,%rax,1)
   1400039bf:	00 
   1400039c0:	48 89 da             	mov    %rbx,%rdx
   1400039c3:	b9 2e 00 00 00       	mov    $0x2e,%ecx
   1400039c8:	e8 b3 f2 ff ff       	call   140002c80 <__pformat_putc>
   1400039cd:	90                   	nop
   1400039ce:	48 89 ec             	mov    %rbp,%rsp
   1400039d1:	5b                   	pop    %rbx
   1400039d2:	5e                   	pop    %rsi
   1400039d3:	5f                   	pop    %rdi
   1400039d4:	41 5c                	pop    %r12
   1400039d6:	5d                   	pop    %rbp
   1400039d7:	c3                   	ret
   1400039d8:	0f 1f 84 00 00 00 00 	nopl   0x0(%rax,%rax,1)
   1400039df:	00 
   1400039e0:	48 c7 45 f8 00 00 00 	movq   $0x0,-0x8(%rbp)
   1400039e7:	00 
   1400039e8:	48 8d 75 f8          	lea    -0x8(%rbp),%rsi
   1400039ec:	e8 b7 46 00 00       	call   1400080a8 <localeconv>
   1400039f1:	48 8d 4d f6          	lea    -0xa(%rbp),%rcx
   1400039f5:	49 89 f1             	mov    %rsi,%r9
   1400039f8:	41 b8 10 00 00 00    	mov    $0x10,%r8d
   1400039fe:	48 8b 10             	mov    (%rax),%rdx
   140003a01:	e8 1a 44 00 00       	call   140007e20 <mbrtowc>
   140003a06:	85 c0                	test   %eax,%eax
   140003a08:	7e 2e                	jle    140003a38 <__pformat_emit_radix_point+0x148>
   140003a0a:	0f b7 55 f6          	movzwl -0xa(%rbp),%edx
   140003a0e:	66 89 53 18          	mov    %dx,0x18(%rbx)
   140003a12:	89 43 14             	mov    %eax,0x14(%rbx)
   140003a15:	e9 f6 fe ff ff       	jmp    140003910 <__pformat_emit_radix_point+0x20>
   140003a1a:	66 0f 1f 44 00 00    	nopw   0x0(%rax,%rax,1)
   140003a20:	48 89 da             	mov    %rbx,%rdx
   140003a23:	b9 2e 00 00 00       	mov    $0x2e,%ecx
   140003a28:	e8 53 f2 ff ff       	call   140002c80 <__pformat_putc>
   140003a2d:	48 89 fc             	mov    %rdi,%rsp
   140003a30:	e9 79 ff ff ff       	jmp    1400039ae <__pformat_emit_radix_point+0xbe>
   140003a35:	0f 1f 00             	nopl   (%rax)
   140003a38:	0f b7 53 18          	movzwl 0x18(%rbx),%edx
   140003a3c:	eb d4                	jmp    140003a12 <__pformat_emit_radix_point+0x122>
   140003a3e:	66 90                	xchg   %ax,%ax

0000000140003a40 <__pformat_emit_float>:
   140003a40:	55                   	push   %rbp
   140003a41:	57                   	push   %rdi
   140003a42:	56                   	push   %rsi
   140003a43:	53                   	push   %rbx
   140003a44:	48 83 ec 28          	sub    $0x28,%rsp
   140003a48:	89 cd                	mov    %ecx,%ebp
   140003a4a:	48 89 d7             	mov    %rdx,%rdi
   140003a4d:	41 8b 49 0c          	mov    0xc(%r9),%ecx
   140003a51:	44 89 c6             	mov    %r8d,%esi
   140003a54:	4c 89 cb             	mov    %r9,%rbx
   140003a57:	45 85 c0             	test   %r8d,%r8d
   140003a5a:	0f 8e 30 01 00 00    	jle    140003b90 <__pformat_emit_float+0x150>
   140003a60:	41 39 c8             	cmp    %ecx,%r8d
   140003a63:	7f 63                	jg     140003ac8 <__pformat_emit_float+0x88>
   140003a65:	41 8b 41 10          	mov    0x10(%r9),%eax
   140003a69:	44 29 c1             	sub    %r8d,%ecx
   140003a6c:	39 c1                	cmp    %eax,%ecx
   140003a6e:	0f 8e 3c 03 00 00    	jle    140003db0 <__pformat_emit_float+0x370>
   140003a74:	29 c1                	sub    %eax,%ecx
   140003a76:	89 4b 0c             	mov    %ecx,0xc(%rbx)
   140003a79:	85 c0                	test   %eax,%eax
   140003a7b:	0f 8e 47 02 00 00    	jle    140003cc8 <__pformat_emit_float+0x288>
   140003a81:	83 e9 01             	sub    $0x1,%ecx
   140003a84:	89 4b 0c             	mov    %ecx,0xc(%rbx)
   140003a87:	85 f6                	test   %esi,%esi
   140003a89:	7e 0a                	jle    140003a95 <__pformat_emit_float+0x55>
   140003a8b:	f6 43 09 10          	testb  $0x10,0x9(%rbx)
   140003a8f:	0f 85 50 02 00 00    	jne    140003ce5 <__pformat_emit_float+0x2a5>
   140003a95:	85 c9                	test   %ecx,%ecx
   140003a97:	7e 42                	jle    140003adb <__pformat_emit_float+0x9b>
   140003a99:	85 ed                	test   %ebp,%ebp
   140003a9b:	0f 85 c7 01 00 00    	jne    140003c68 <__pformat_emit_float+0x228>
   140003aa1:	8b 43 08             	mov    0x8(%rbx),%eax
   140003aa4:	a9 c0 01 00 00       	test   $0x1c0,%eax
   140003aa9:	0f 84 e9 02 00 00    	je     140003d98 <__pformat_emit_float+0x358>
   140003aaf:	8d 51 ff             	lea    -0x1(%rcx),%edx
   140003ab2:	89 53 0c             	mov    %edx,0xc(%rbx)
   140003ab5:	85 d2                	test   %edx,%edx
   140003ab7:	74 2d                	je     140003ae6 <__pformat_emit_float+0xa6>
   140003ab9:	f6 c4 06             	test   $0x6,%ah
   140003abc:	75 28                	jne    140003ae6 <__pformat_emit_float+0xa6>
   140003abe:	e9 c0 01 00 00       	jmp    140003c83 <__pformat_emit_float+0x243>
   140003ac3:	0f 1f 44 00 00       	nopl   0x0(%rax,%rax,1)
   140003ac8:	41 c7 41 0c ff ff ff 	movl   $0xffffffff,0xc(%r9)
   140003acf:	ff 
   140003ad0:	41 f6 41 09 10       	testb  $0x10,0x9(%r9)
   140003ad5:	0f 85 65 02 00 00    	jne    140003d40 <__pformat_emit_float+0x300>
   140003adb:	85 ed                	test   %ebp,%ebp
   140003add:	0f 85 dd 00 00 00    	jne    140003bc0 <__pformat_emit_float+0x180>
   140003ae3:	8b 43 08             	mov    0x8(%rbx),%eax
   140003ae6:	f6 c4 01             	test   $0x1,%ah
   140003ae9:	0f 85 09 02 00 00    	jne    140003cf8 <__pformat_emit_float+0x2b8>
   140003aef:	a8 40                	test   $0x40,%al
   140003af1:	0f 85 f9 02 00 00    	jne    140003df0 <__pformat_emit_float+0x3b0>
   140003af7:	8b 43 0c             	mov    0xc(%rbx),%eax
   140003afa:	85 c0                	test   %eax,%eax
   140003afc:	7e 15                	jle    140003b13 <__pformat_emit_float+0xd3>
   140003afe:	8b 53 08             	mov    0x8(%rbx),%edx
   140003b01:	81 e2 00 06 00 00    	and    $0x600,%edx
   140003b07:	81 fa 00 02 00 00    	cmp    $0x200,%edx
   140003b0d:	0f 84 fd 01 00 00    	je     140003d10 <__pformat_emit_float+0x2d0>
   140003b13:	85 f6                	test   %esi,%esi
   140003b15:	0f 8e 05 01 00 00    	jle    140003c20 <__pformat_emit_float+0x1e0>
   140003b1b:	0f 1f 44 00 00       	nopl   0x0(%rax,%rax,1)
   140003b20:	0f b6 07             	movzbl (%rdi),%eax
   140003b23:	b9 30 00 00 00       	mov    $0x30,%ecx
   140003b28:	84 c0                	test   %al,%al
   140003b2a:	74 07                	je     140003b33 <__pformat_emit_float+0xf3>
   140003b2c:	48 83 c7 01          	add    $0x1,%rdi
   140003b30:	0f be c8             	movsbl %al,%ecx
   140003b33:	48 89 da             	mov    %rbx,%rdx
   140003b36:	e8 45 f1 ff ff       	call   140002c80 <__pformat_putc>
   140003b3b:	83 ee 01             	sub    $0x1,%esi
   140003b3e:	74 30                	je     140003b70 <__pformat_emit_float+0x130>
   140003b40:	f6 43 09 10          	testb  $0x10,0x9(%rbx)
   140003b44:	74 da                	je     140003b20 <__pformat_emit_float+0xe0>
   140003b46:	66 83 7b 20 00       	cmpw   $0x0,0x20(%rbx)
   140003b4b:	74 d3                	je     140003b20 <__pformat_emit_float+0xe0>
   140003b4d:	69 c6 ab aa aa aa    	imul   $0xaaaaaaab,%esi,%eax
   140003b53:	3d 55 55 55 55       	cmp    $0x55555555,%eax
   140003b58:	77 c6                	ja     140003b20 <__pformat_emit_float+0xe0>
   140003b5a:	48 8d 4b 20          	lea    0x20(%rbx),%rcx
   140003b5e:	49 89 d8             	mov    %rbx,%r8
   140003b61:	ba 01 00 00 00       	mov    $0x1,%edx
   140003b66:	e8 75 f1 ff ff       	call   140002ce0 <__pformat_wputchars>
   140003b6b:	eb b3                	jmp    140003b20 <__pformat_emit_float+0xe0>
   140003b6d:	0f 1f 00             	nopl   (%rax)
   140003b70:	8b 43 10             	mov    0x10(%rbx),%eax
   140003b73:	85 c0                	test   %eax,%eax
   140003b75:	7f 61                	jg     140003bd8 <__pformat_emit_float+0x198>
   140003b77:	f6 43 09 08          	testb  $0x8,0x9(%rbx)
   140003b7b:	0f 85 b7 00 00 00    	jne    140003c38 <__pformat_emit_float+0x1f8>
   140003b81:	83 e8 01             	sub    $0x1,%eax
   140003b84:	89 43 10             	mov    %eax,0x10(%rbx)
   140003b87:	48 83 c4 28          	add    $0x28,%rsp
   140003b8b:	5b                   	pop    %rbx
   140003b8c:	5e                   	pop    %rsi
   140003b8d:	5f                   	pop    %rdi
   140003b8e:	5d                   	pop    %rbp
   140003b8f:	c3                   	ret
   140003b90:	85 c9                	test   %ecx,%ecx
   140003b92:	0f 8e 18 01 00 00    	jle    140003cb0 <__pformat_emit_float+0x270>
   140003b98:	41 8b 41 10          	mov    0x10(%r9),%eax
   140003b9c:	83 e9 01             	sub    $0x1,%ecx
   140003b9f:	39 c1                	cmp    %eax,%ecx
   140003ba1:	0f 8f cd fe ff ff    	jg     140003a74 <__pformat_emit_float+0x34>
   140003ba7:	c7 43 0c ff ff ff ff 	movl   $0xffffffff,0xc(%rbx)
   140003bae:	85 ed                	test   %ebp,%ebp
   140003bb0:	0f 84 2d ff ff ff    	je     140003ae3 <__pformat_emit_float+0xa3>
   140003bb6:	66 2e 0f 1f 84 00 00 	cs nopw 0x0(%rax,%rax,1)
   140003bbd:	00 00 00 
   140003bc0:	48 89 da             	mov    %rbx,%rdx
   140003bc3:	b9 2d 00 00 00       	mov    $0x2d,%ecx
   140003bc8:	e8 b3 f0 ff ff       	call   140002c80 <__pformat_putc>
   140003bcd:	e9 25 ff ff ff       	jmp    140003af7 <__pformat_emit_float+0xb7>
   140003bd2:	66 0f 1f 44 00 00    	nopw   0x0(%rax,%rax,1)
   140003bd8:	48 89 d9             	mov    %rbx,%rcx
   140003bdb:	e8 10 fd ff ff       	call   1400038f0 <__pformat_emit_radix_point>
   140003be0:	eb 21                	jmp    140003c03 <__pformat_emit_float+0x1c3>
   140003be2:	66 0f 1f 44 00 00    	nopw   0x0(%rax,%rax,1)
   140003be8:	0f b6 07             	movzbl (%rdi),%eax
   140003beb:	b9 30 00 00 00       	mov    $0x30,%ecx
   140003bf0:	84 c0                	test   %al,%al
   140003bf2:	74 07                	je     140003bfb <__pformat_emit_float+0x1bb>
   140003bf4:	48 83 c7 01          	add    $0x1,%rdi
   140003bf8:	0f be c8             	movsbl %al,%ecx
   140003bfb:	48 89 da             	mov    %rbx,%rdx
   140003bfe:	e8 7d f0 ff ff       	call   140002c80 <__pformat_putc>
   140003c03:	8b 43 10             	mov    0x10(%rbx),%eax
   140003c06:	8d 50 ff             	lea    -0x1(%rax),%edx
   140003c09:	89 53 10             	mov    %edx,0x10(%rbx)
   140003c0c:	85 c0                	test   %eax,%eax
   140003c0e:	7f d8                	jg     140003be8 <__pformat_emit_float+0x1a8>
   140003c10:	48 83 c4 28          	add    $0x28,%rsp
   140003c14:	5b                   	pop    %rbx
   140003c15:	5e                   	pop    %rsi
   140003c16:	5f                   	pop    %rdi
   140003c17:	5d                   	pop    %rbp
   140003c18:	c3                   	ret
   140003c19:	0f 1f 80 00 00 00 00 	nopl   0x0(%rax)
   140003c20:	48 89 da             	mov    %rbx,%rdx
   140003c23:	b9 30 00 00 00       	mov    $0x30,%ecx
   140003c28:	e8 53 f0 ff ff       	call   140002c80 <__pformat_putc>
   140003c2d:	8b 43 10             	mov    0x10(%rbx),%eax
   140003c30:	85 c0                	test   %eax,%eax
   140003c32:	0f 8e ca 01 00 00    	jle    140003e02 <__pformat_emit_float+0x3c2>
   140003c38:	48 89 d9             	mov    %rbx,%rcx
   140003c3b:	e8 b0 fc ff ff       	call   1400038f0 <__pformat_emit_radix_point>
   140003c40:	85 f6                	test   %esi,%esi
   140003c42:	74 bf                	je     140003c03 <__pformat_emit_float+0x1c3>
   140003c44:	8b 43 10             	mov    0x10(%rbx),%eax
   140003c47:	01 f0                	add    %esi,%eax
   140003c49:	89 43 10             	mov    %eax,0x10(%rbx)
   140003c4c:	0f 1f 40 00          	nopl   0x0(%rax)
   140003c50:	48 89 da             	mov    %rbx,%rdx
   140003c53:	b9 30 00 00 00       	mov    $0x30,%ecx
   140003c58:	e8 23 f0 ff ff       	call   140002c80 <__pformat_putc>
   140003c5d:	83 c6 01             	add    $0x1,%esi
   140003c60:	75 ee                	jne    140003c50 <__pformat_emit_float+0x210>
   140003c62:	eb 9f                	jmp    140003c03 <__pformat_emit_float+0x1c3>
   140003c64:	0f 1f 40 00          	nopl   0x0(%rax)
   140003c68:	8d 41 ff             	lea    -0x1(%rcx),%eax
   140003c6b:	89 43 0c             	mov    %eax,0xc(%rbx)
   140003c6e:	85 c0                	test   %eax,%eax
   140003c70:	0f 84 4a ff ff ff    	je     140003bc0 <__pformat_emit_float+0x180>
   140003c76:	f7 43 08 00 06 00 00 	testl  $0x600,0x8(%rbx)
   140003c7d:	0f 85 3d ff ff ff    	jne    140003bc0 <__pformat_emit_float+0x180>
   140003c83:	83 e9 02             	sub    $0x2,%ecx
   140003c86:	89 4b 0c             	mov    %ecx,0xc(%rbx)
   140003c89:	0f 1f 80 00 00 00 00 	nopl   0x0(%rax)
   140003c90:	48 89 da             	mov    %rbx,%rdx
   140003c93:	b9 20 00 00 00       	mov    $0x20,%ecx
   140003c98:	e8 e3 ef ff ff       	call   140002c80 <__pformat_putc>
   140003c9d:	8b 43 0c             	mov    0xc(%rbx),%eax
   140003ca0:	8d 50 ff             	lea    -0x1(%rax),%edx
   140003ca3:	89 53 0c             	mov    %edx,0xc(%rbx)
   140003ca6:	85 c0                	test   %eax,%eax
   140003ca8:	7f e6                	jg     140003c90 <__pformat_emit_float+0x250>
   140003caa:	e9 2c fe ff ff       	jmp    140003adb <__pformat_emit_float+0x9b>
   140003caf:	90                   	nop
   140003cb0:	0f 85 f1 fe ff ff    	jne    140003ba7 <__pformat_emit_float+0x167>
   140003cb6:	41 8b 49 10          	mov    0x10(%r9),%ecx
   140003cba:	85 c9                	test   %ecx,%ecx
   140003cbc:	0f 89 e5 fe ff ff    	jns    140003ba7 <__pformat_emit_float+0x167>
   140003cc2:	f7 d9                	neg    %ecx
   140003cc4:	41 89 49 0c          	mov    %ecx,0xc(%r9)
   140003cc8:	8b 43 08             	mov    0x8(%rbx),%eax
   140003ccb:	f6 c4 08             	test   $0x8,%ah
   140003cce:	0f 85 ad fd ff ff    	jne    140003a81 <__pformat_emit_float+0x41>
   140003cd4:	85 f6                	test   %esi,%esi
   140003cd6:	0f 8e bd fd ff ff    	jle    140003a99 <__pformat_emit_float+0x59>
   140003cdc:	f6 c4 10             	test   $0x10,%ah
   140003cdf:	0f 84 b4 fd ff ff    	je     140003a99 <__pformat_emit_float+0x59>
   140003ce5:	66 83 7b 20 00       	cmpw   $0x0,0x20(%rbx)
   140003cea:	0f 84 a5 fd ff ff    	je     140003a95 <__pformat_emit_float+0x55>
   140003cf0:	e9 dd 00 00 00       	jmp    140003dd2 <__pformat_emit_float+0x392>
   140003cf5:	0f 1f 00             	nopl   (%rax)
   140003cf8:	48 89 da             	mov    %rbx,%rdx
   140003cfb:	b9 2b 00 00 00       	mov    $0x2b,%ecx
   140003d00:	e8 7b ef ff ff       	call   140002c80 <__pformat_putc>
   140003d05:	e9 ed fd ff ff       	jmp    140003af7 <__pformat_emit_float+0xb7>
   140003d0a:	66 0f 1f 44 00 00    	nopw   0x0(%rax,%rax,1)
   140003d10:	83 e8 01             	sub    $0x1,%eax
   140003d13:	89 43 0c             	mov    %eax,0xc(%rbx)
   140003d16:	66 2e 0f 1f 84 00 00 	cs nopw 0x0(%rax,%rax,1)
   140003d1d:	00 00 00 
   140003d20:	48 89 da             	mov    %rbx,%rdx
   140003d23:	b9 30 00 00 00       	mov    $0x30,%ecx
   140003d28:	e8 53 ef ff ff       	call   140002c80 <__pformat_putc>
   140003d2d:	8b 43 0c             	mov    0xc(%rbx),%eax
   140003d30:	8d 50 ff             	lea    -0x1(%rax),%edx
   140003d33:	89 53 0c             	mov    %edx,0xc(%rbx)
   140003d36:	85 c0                	test   %eax,%eax
   140003d38:	7f e6                	jg     140003d20 <__pformat_emit_float+0x2e0>
   140003d3a:	e9 d4 fd ff ff       	jmp    140003b13 <__pformat_emit_float+0xd3>
   140003d3f:	90                   	nop
   140003d40:	66 41 83 79 20 00    	cmpw   $0x0,0x20(%r9)
   140003d46:	0f 84 8f fd ff ff    	je     140003adb <__pformat_emit_float+0x9b>
   140003d4c:	41 8d 40 02          	lea    0x2(%r8),%eax
   140003d50:	ba ab aa aa aa       	mov    $0xaaaaaaab,%edx
   140003d55:	b9 ff ff ff ff       	mov    $0xffffffff,%ecx
   140003d5a:	48 0f af c2          	imul   %rdx,%rax
   140003d5e:	48 c1 e8 21          	shr    $0x21,%rax
   140003d62:	83 f8 01             	cmp    $0x1,%eax
   140003d65:	0f 84 70 fd ff ff    	je     140003adb <__pformat_emit_float+0x9b>
   140003d6b:	83 e8 01             	sub    $0x1,%eax
   140003d6e:	29 c8                	sub    %ecx,%eax
   140003d70:	eb 16                	jmp    140003d88 <__pformat_emit_float+0x348>
   140003d72:	66 0f 1f 44 00 00    	nopw   0x0(%rax,%rax,1)
   140003d78:	83 e9 01             	sub    $0x1,%ecx
   140003d7b:	89 c2                	mov    %eax,%edx
   140003d7d:	01 ca                	add    %ecx,%edx
   140003d7f:	89 4b 0c             	mov    %ecx,0xc(%rbx)
   140003d82:	0f 84 0d fd ff ff    	je     140003a95 <__pformat_emit_float+0x55>
   140003d88:	85 c9                	test   %ecx,%ecx
   140003d8a:	7f ec                	jg     140003d78 <__pformat_emit_float+0x338>
   140003d8c:	e9 4a fd ff ff       	jmp    140003adb <__pformat_emit_float+0x9b>
   140003d91:	0f 1f 80 00 00 00 00 	nopl   0x0(%rax)
   140003d98:	83 e9 01             	sub    $0x1,%ecx
   140003d9b:	f6 c4 06             	test   $0x6,%ah
   140003d9e:	0f 84 e2 fe ff ff    	je     140003c86 <__pformat_emit_float+0x246>
   140003da4:	e9 3d fd ff ff       	jmp    140003ae6 <__pformat_emit_float+0xa6>
   140003da9:	0f 1f 80 00 00 00 00 	nopl   0x0(%rax)
   140003db0:	41 c7 41 0c ff ff ff 	movl   $0xffffffff,0xc(%r9)
   140003db7:	ff 
   140003db8:	41 f6 41 09 10       	testb  $0x10,0x9(%r9)
   140003dbd:	0f 84 18 fd ff ff    	je     140003adb <__pformat_emit_float+0x9b>
   140003dc3:	66 41 83 79 20 00    	cmpw   $0x0,0x20(%r9)
   140003dc9:	0f 84 0c fd ff ff    	je     140003adb <__pformat_emit_float+0x9b>
   140003dcf:	83 c9 ff             	or     $0xffffffff,%ecx
   140003dd2:	8d 46 02             	lea    0x2(%rsi),%eax
   140003dd5:	41 b8 03 00 00 00    	mov    $0x3,%r8d
   140003ddb:	99                   	cltd
   140003ddc:	41 f7 f8             	idiv   %r8d
   140003ddf:	83 f8 01             	cmp    $0x1,%eax
   140003de2:	75 87                	jne    140003d6b <__pformat_emit_float+0x32b>
   140003de4:	e9 ac fc ff ff       	jmp    140003a95 <__pformat_emit_float+0x55>
   140003de9:	0f 1f 80 00 00 00 00 	nopl   0x0(%rax)
   140003df0:	48 89 da             	mov    %rbx,%rdx
   140003df3:	b9 20 00 00 00       	mov    $0x20,%ecx
   140003df8:	e8 83 ee ff ff       	call   140002c80 <__pformat_putc>
   140003dfd:	e9 f5 fc ff ff       	jmp    140003af7 <__pformat_emit_float+0xb7>
   140003e02:	f6 43 09 08          	testb  $0x8,0x9(%rbx)
   140003e06:	0f 85 2c fe ff ff    	jne    140003c38 <__pformat_emit_float+0x1f8>
   140003e0c:	85 f6                	test   %esi,%esi
   140003e0e:	0f 85 33 fe ff ff    	jne    140003c47 <__pformat_emit_float+0x207>
   140003e14:	e9 68 fd ff ff       	jmp    140003b81 <__pformat_emit_float+0x141>
   140003e19:	0f 1f 80 00 00 00 00 	nopl   0x0(%rax)

0000000140003e20 <__pformat_emit_efloat>:
   140003e20:	57                   	push   %rdi
   140003e21:	56                   	push   %rsi
   140003e22:	53                   	push   %rbx
   140003e23:	48 83 ec 20          	sub    $0x20,%rsp
   140003e27:	41 ba 01 00 00 00    	mov    $0x1,%r10d
   140003e2d:	41 83 e8 01          	sub    $0x1,%r8d
   140003e31:	41 89 cb             	mov    %ecx,%r11d
   140003e34:	4c 89 cb             	mov    %r9,%rbx
   140003e37:	49 63 f0             	movslq %r8d,%rsi
   140003e3a:	41 c1 f8 1f          	sar    $0x1f,%r8d
   140003e3e:	48 69 ce 67 66 66 66 	imul   $0x66666667,%rsi,%rcx
   140003e45:	48 c1 f9 22          	sar    $0x22,%rcx
   140003e49:	44 29 c1             	sub    %r8d,%ecx
   140003e4c:	74 1d                	je     140003e6b <__pformat_emit_efloat+0x4b>
   140003e4e:	66 90                	xchg   %ax,%ax
   140003e50:	48 63 c1             	movslq %ecx,%rax
   140003e53:	c1 f9 1f             	sar    $0x1f,%ecx
   140003e56:	41 83 c2 01          	add    $0x1,%r10d
   140003e5a:	48 69 c0 67 66 66 66 	imul   $0x66666667,%rax,%rax
   140003e61:	48 c1 f8 22          	sar    $0x22,%rax
   140003e65:	29 c8                	sub    %ecx,%eax
   140003e67:	89 c1                	mov    %eax,%ecx
   140003e69:	75 e5                	jne    140003e50 <__pformat_emit_efloat+0x30>
   140003e6b:	8b 43 2c             	mov    0x2c(%rbx),%eax
   140003e6e:	83 f8 ff             	cmp    $0xffffffff,%eax
   140003e71:	75 0c                	jne    140003e7f <__pformat_emit_efloat+0x5f>
   140003e73:	c7 43 2c 02 00 00 00 	movl   $0x2,0x2c(%rbx)
   140003e7a:	b8 02 00 00 00       	mov    $0x2,%eax
   140003e7f:	44 39 d0             	cmp    %r10d,%eax
   140003e82:	44 89 d7             	mov    %r10d,%edi
   140003e85:	44 8b 43 0c          	mov    0xc(%rbx),%r8d
   140003e89:	49 89 d9             	mov    %rbx,%r9
   140003e8c:	0f 4d f8             	cmovge %eax,%edi
   140003e8f:	44 89 c0             	mov    %r8d,%eax
   140003e92:	8d 4f 02             	lea    0x2(%rdi),%ecx
   140003e95:	29 c8                	sub    %ecx,%eax
   140003e97:	41 39 c8             	cmp    %ecx,%r8d
   140003e9a:	b9 ff ff ff ff       	mov    $0xffffffff,%ecx
   140003e9f:	41 b8 01 00 00 00    	mov    $0x1,%r8d
   140003ea5:	0f 4e c1             	cmovle %ecx,%eax
   140003ea8:	44 89 d9             	mov    %r11d,%ecx
   140003eab:	89 43 0c             	mov    %eax,0xc(%rbx)
   140003eae:	e8 8d fb ff ff       	call   140003a40 <__pformat_emit_float>
   140003eb3:	8b 4b 08             	mov    0x8(%rbx),%ecx
   140003eb6:	8b 43 2c             	mov    0x2c(%rbx),%eax
   140003eb9:	48 89 da             	mov    %rbx,%rdx
   140003ebc:	89 43 10             	mov    %eax,0x10(%rbx)
   140003ebf:	89 c8                	mov    %ecx,%eax
   140003ec1:	83 e1 20             	and    $0x20,%ecx
   140003ec4:	0d c0 01 00 00       	or     $0x1c0,%eax
   140003ec9:	83 c9 45             	or     $0x45,%ecx
   140003ecc:	89 43 08             	mov    %eax,0x8(%rbx)
   140003ecf:	e8 ac ed ff ff       	call   140002c80 <__pformat_putc>
   140003ed4:	8d 47 01             	lea    0x1(%rdi),%eax
   140003ed7:	01 43 0c             	add    %eax,0xc(%rbx)
   140003eda:	48 89 da             	mov    %rbx,%rdx
   140003edd:	48 89 f1             	mov    %rsi,%rcx
   140003ee0:	48 83 c4 20          	add    $0x20,%rsp
   140003ee4:	5b                   	pop    %rbx
   140003ee5:	5e                   	pop    %rsi
   140003ee6:	5f                   	pop    %rdi
   140003ee7:	e9 74 f6 ff ff       	jmp    140003560 <__pformat_int.isra.0>
   140003eec:	0f 1f 40 00          	nopl   0x0(%rax)

0000000140003ef0 <__pformat_efloat>:
   140003ef0:	56                   	push   %rsi
   140003ef1:	53                   	push   %rbx
   140003ef2:	48 83 ec 58          	sub    $0x58,%rsp
   140003ef6:	44 8b 42 10          	mov    0x10(%rdx),%r8d
   140003efa:	db 29                	fldt   (%rcx)
   140003efc:	48 89 d3             	mov    %rdx,%rbx
   140003eff:	45 85 c0             	test   %r8d,%r8d
   140003f02:	78 5c                	js     140003f60 <__pformat_efloat+0x70>
   140003f04:	41 83 c0 01          	add    $0x1,%r8d
   140003f08:	48 8d 44 24 48       	lea    0x48(%rsp),%rax
   140003f0d:	48 8d 54 24 30       	lea    0x30(%rsp),%rdx
   140003f12:	b9 02 00 00 00       	mov    $0x2,%ecx
   140003f17:	db 7c 24 30          	fstpt  0x30(%rsp)
   140003f1b:	4c 8d 4c 24 4c       	lea    0x4c(%rsp),%r9
   140003f20:	48 89 44 24 20       	mov    %rax,0x20(%rsp)
   140003f25:	e8 66 ec ff ff       	call   140002b90 <__pformat_cvt>
   140003f2a:	44 8b 44 24 4c       	mov    0x4c(%rsp),%r8d
   140003f2f:	48 89 c6             	mov    %rax,%rsi
   140003f32:	41 81 f8 00 80 ff ff 	cmp    $0xffff8000,%r8d
   140003f39:	74 35                	je     140003f70 <__pformat_efloat+0x80>
   140003f3b:	8b 4c 24 48          	mov    0x48(%rsp),%ecx
   140003f3f:	49 89 d9             	mov    %rbx,%r9
   140003f42:	48 89 c2             	mov    %rax,%rdx
   140003f45:	e8 d6 fe ff ff       	call   140003e20 <__pformat_emit_efloat>
   140003f4a:	48 89 f1             	mov    %rsi,%rcx
   140003f4d:	e8 ce 12 00 00       	call   140005220 <__freedtoa>
   140003f52:	90                   	nop
   140003f53:	48 83 c4 58          	add    $0x58,%rsp
   140003f57:	5b                   	pop    %rbx
   140003f58:	5e                   	pop    %rsi
   140003f59:	c3                   	ret
   140003f5a:	66 0f 1f 44 00 00    	nopw   0x0(%rax,%rax,1)
   140003f60:	c7 42 10 06 00 00 00 	movl   $0x6,0x10(%rdx)
   140003f67:	41 b8 07 00 00 00    	mov    $0x7,%r8d
   140003f6d:	eb 99                	jmp    140003f08 <__pformat_efloat+0x18>
   140003f6f:	90                   	nop
   140003f70:	8b 4c 24 48          	mov    0x48(%rsp),%ecx
   140003f74:	49 89 d8             	mov    %rbx,%r8
   140003f77:	48 89 c2             	mov    %rax,%rdx
   140003f7a:	e8 91 f0 ff ff       	call   140003010 <__pformat_emit_inf_or_nan>
   140003f7f:	48 89 f1             	mov    %rsi,%rcx
   140003f82:	e8 99 12 00 00       	call   140005220 <__freedtoa>
   140003f87:	90                   	nop
   140003f88:	48 83 c4 58          	add    $0x58,%rsp
   140003f8c:	5b                   	pop    %rbx
   140003f8d:	5e                   	pop    %rsi
   140003f8e:	c3                   	ret
   140003f8f:	90                   	nop

0000000140003f90 <__pformat_float>:
   140003f90:	56                   	push   %rsi
   140003f91:	53                   	push   %rbx
   140003f92:	48 83 ec 58          	sub    $0x58,%rsp
   140003f96:	44 8b 42 10          	mov    0x10(%rdx),%r8d
   140003f9a:	db 29                	fldt   (%rcx)
   140003f9c:	48 89 d3             	mov    %rdx,%rbx
   140003f9f:	45 85 c0             	test   %r8d,%r8d
   140003fa2:	79 0d                	jns    140003fb1 <__pformat_float+0x21>
   140003fa4:	c7 42 10 06 00 00 00 	movl   $0x6,0x10(%rdx)
   140003fab:	41 b8 06 00 00 00    	mov    $0x6,%r8d
   140003fb1:	48 8d 44 24 48       	lea    0x48(%rsp),%rax
   140003fb6:	48 8d 54 24 30       	lea    0x30(%rsp),%rdx
   140003fbb:	b9 03 00 00 00       	mov    $0x3,%ecx
   140003fc0:	db 7c 24 30          	fstpt  0x30(%rsp)
   140003fc4:	4c 8d 4c 24 4c       	lea    0x4c(%rsp),%r9
   140003fc9:	48 89 44 24 20       	mov    %rax,0x20(%rsp)
   140003fce:	e8 bd eb ff ff       	call   140002b90 <__pformat_cvt>
   140003fd3:	44 8b 44 24 4c       	mov    0x4c(%rsp),%r8d
   140003fd8:	48 89 c6             	mov    %rax,%rsi
   140003fdb:	41 81 f8 00 80 ff ff 	cmp    $0xffff8000,%r8d
   140003fe2:	74 6c                	je     140004050 <__pformat_float+0xc0>
   140003fe4:	8b 4c 24 48          	mov    0x48(%rsp),%ecx
   140003fe8:	48 89 c2             	mov    %rax,%rdx
   140003feb:	49 89 d9             	mov    %rbx,%r9
   140003fee:	e8 4d fa ff ff       	call   140003a40 <__pformat_emit_float>
   140003ff3:	8b 43 0c             	mov    0xc(%rbx),%eax
   140003ff6:	eb 1c                	jmp    140004014 <__pformat_float+0x84>
   140003ff8:	0f 1f 84 00 00 00 00 	nopl   0x0(%rax,%rax,1)
   140003fff:	00 
   140004000:	48 63 43 24          	movslq 0x24(%rbx),%rax
   140004004:	c6 04 02 20          	movb   $0x20,(%rdx,%rax,1)
   140004008:	8b 53 24             	mov    0x24(%rbx),%edx
   14000400b:	8b 43 0c             	mov    0xc(%rbx),%eax
   14000400e:	83 c2 01             	add    $0x1,%edx
   140004011:	89 53 24             	mov    %edx,0x24(%rbx)
   140004014:	89 c2                	mov    %eax,%edx
   140004016:	83 e8 01             	sub    $0x1,%eax
   140004019:	89 43 0c             	mov    %eax,0xc(%rbx)
   14000401c:	85 d2                	test   %edx,%edx
   14000401e:	7e 3f                	jle    14000405f <__pformat_float+0xcf>
   140004020:	8b 4b 08             	mov    0x8(%rbx),%ecx
   140004023:	f6 c5 40             	test   $0x40,%ch
   140004026:	75 08                	jne    140004030 <__pformat_float+0xa0>
   140004028:	8b 53 24             	mov    0x24(%rbx),%edx
   14000402b:	39 53 28             	cmp    %edx,0x28(%rbx)
   14000402e:	7e de                	jle    14000400e <__pformat_float+0x7e>
   140004030:	48 8b 13             	mov    (%rbx),%rdx
   140004033:	80 e5 20             	and    $0x20,%ch
   140004036:	74 c8                	je     140004000 <__pformat_float+0x70>
   140004038:	b9 20 00 00 00       	mov    $0x20,%ecx
   14000403d:	e8 4e 40 00 00       	call   140008090 <fputc>
   140004042:	8b 53 24             	mov    0x24(%rbx),%edx
   140004045:	8b 43 0c             	mov    0xc(%rbx),%eax
   140004048:	eb c4                	jmp    14000400e <__pformat_float+0x7e>
   14000404a:	66 0f 1f 44 00 00    	nopw   0x0(%rax,%rax,1)
   140004050:	8b 4c 24 48          	mov    0x48(%rsp),%ecx
   140004054:	49 89 d8             	mov    %rbx,%r8
   140004057:	48 89 c2             	mov    %rax,%rdx
   14000405a:	e8 b1 ef ff ff       	call   140003010 <__pformat_emit_inf_or_nan>
   14000405f:	48 89 f1             	mov    %rsi,%rcx
   140004062:	e8 b9 11 00 00       	call   140005220 <__freedtoa>
   140004067:	90                   	nop
   140004068:	48 83 c4 58          	add    $0x58,%rsp
   14000406c:	5b                   	pop    %rbx
   14000406d:	5e                   	pop    %rsi
   14000406e:	c3                   	ret
   14000406f:	90                   	nop

0000000140004070 <__pformat_gfloat>:
   140004070:	57                   	push   %rdi
   140004071:	56                   	push   %rsi
   140004072:	53                   	push   %rbx
   140004073:	48 83 ec 50          	sub    $0x50,%rsp
   140004077:	44 8b 42 10          	mov    0x10(%rdx),%r8d
   14000407b:	db 29                	fldt   (%rcx)
   14000407d:	48 89 d3             	mov    %rdx,%rbx
   140004080:	45 85 c0             	test   %r8d,%r8d
   140004083:	0f 88 ff 00 00 00    	js     140004188 <__pformat_gfloat+0x118>
   140004089:	0f 84 e1 00 00 00    	je     140004170 <__pformat_gfloat+0x100>
   14000408f:	48 8d 44 24 48       	lea    0x48(%rsp),%rax
   140004094:	48 8d 54 24 30       	lea    0x30(%rsp),%rdx
   140004099:	b9 02 00 00 00       	mov    $0x2,%ecx
   14000409e:	db 7c 24 30          	fstpt  0x30(%rsp)
   1400040a2:	4c 8d 4c 24 4c       	lea    0x4c(%rsp),%r9
   1400040a7:	48 89 44 24 20       	mov    %rax,0x20(%rsp)
   1400040ac:	e8 df ea ff ff       	call   140002b90 <__pformat_cvt>
   1400040b1:	8b 7c 24 4c          	mov    0x4c(%rsp),%edi
   1400040b5:	48 89 c6             	mov    %rax,%rsi
   1400040b8:	81 ff 00 80 ff ff    	cmp    $0xffff8000,%edi
   1400040be:	0f 84 dc 00 00 00    	je     1400041a0 <__pformat_gfloat+0x130>
   1400040c4:	8b 43 08             	mov    0x8(%rbx),%eax
   1400040c7:	25 00 08 00 00       	and    $0x800,%eax
   1400040cc:	83 ff fd             	cmp    $0xfffffffd,%edi
   1400040cf:	7c 5f                	jl     140004130 <__pformat_gfloat+0xc0>
   1400040d1:	8b 53 10             	mov    0x10(%rbx),%edx
   1400040d4:	39 d7                	cmp    %edx,%edi
   1400040d6:	7f 58                	jg     140004130 <__pformat_gfloat+0xc0>
   1400040d8:	85 c0                	test   %eax,%eax
   1400040da:	0f 84 e0 00 00 00    	je     1400041c0 <__pformat_gfloat+0x150>
   1400040e0:	29 fa                	sub    %edi,%edx
   1400040e2:	89 53 10             	mov    %edx,0x10(%rbx)
   1400040e5:	8b 4c 24 48          	mov    0x48(%rsp),%ecx
   1400040e9:	49 89 d9             	mov    %rbx,%r9
   1400040ec:	41 89 f8             	mov    %edi,%r8d
   1400040ef:	48 89 f2             	mov    %rsi,%rdx
   1400040f2:	e8 49 f9 ff ff       	call   140003a40 <__pformat_emit_float>
   1400040f7:	eb 14                	jmp    14000410d <__pformat_gfloat+0x9d>
   1400040f9:	0f 1f 80 00 00 00 00 	nopl   0x0(%rax)
   140004100:	48 89 da             	mov    %rbx,%rdx
   140004103:	b9 20 00 00 00       	mov    $0x20,%ecx
   140004108:	e8 73 eb ff ff       	call   140002c80 <__pformat_putc>
   14000410d:	8b 43 0c             	mov    0xc(%rbx),%eax
   140004110:	8d 50 ff             	lea    -0x1(%rax),%edx
   140004113:	89 53 0c             	mov    %edx,0xc(%rbx)
   140004116:	85 c0                	test   %eax,%eax
   140004118:	7f e6                	jg     140004100 <__pformat_gfloat+0x90>
   14000411a:	48 89 f1             	mov    %rsi,%rcx
   14000411d:	e8 fe 10 00 00       	call   140005220 <__freedtoa>
   140004122:	90                   	nop
   140004123:	48 83 c4 50          	add    $0x50,%rsp
   140004127:	5b                   	pop    %rbx
   140004128:	5e                   	pop    %rsi
   140004129:	5f                   	pop    %rdi
   14000412a:	c3                   	ret
   14000412b:	0f 1f 44 00 00       	nopl   0x0(%rax,%rax,1)
   140004130:	85 c0                	test   %eax,%eax
   140004132:	75 34                	jne    140004168 <__pformat_gfloat+0xf8>
   140004134:	48 89 f1             	mov    %rsi,%rcx
   140004137:	e8 9c 3f 00 00       	call   1400080d8 <strlen>
   14000413c:	83 e8 01             	sub    $0x1,%eax
   14000413f:	89 43 10             	mov    %eax,0x10(%rbx)
   140004142:	8b 4c 24 48          	mov    0x48(%rsp),%ecx
   140004146:	49 89 d9             	mov    %rbx,%r9
   140004149:	41 89 f8             	mov    %edi,%r8d
   14000414c:	48 89 f2             	mov    %rsi,%rdx
   14000414f:	e8 cc fc ff ff       	call   140003e20 <__pformat_emit_efloat>
   140004154:	48 89 f1             	mov    %rsi,%rcx
   140004157:	e8 c4 10 00 00       	call   140005220 <__freedtoa>
   14000415c:	90                   	nop
   14000415d:	48 83 c4 50          	add    $0x50,%rsp
   140004161:	5b                   	pop    %rbx
   140004162:	5e                   	pop    %rsi
   140004163:	5f                   	pop    %rdi
   140004164:	c3                   	ret
   140004165:	0f 1f 00             	nopl   (%rax)
   140004168:	8b 43 10             	mov    0x10(%rbx),%eax
   14000416b:	83 e8 01             	sub    $0x1,%eax
   14000416e:	eb cf                	jmp    14000413f <__pformat_gfloat+0xcf>
   140004170:	c7 42 10 01 00 00 00 	movl   $0x1,0x10(%rdx)
   140004177:	41 b8 01 00 00 00    	mov    $0x1,%r8d
   14000417d:	e9 0d ff ff ff       	jmp    14000408f <__pformat_gfloat+0x1f>
   140004182:	66 0f 1f 44 00 00    	nopw   0x0(%rax,%rax,1)
   140004188:	c7 42 10 06 00 00 00 	movl   $0x6,0x10(%rdx)
   14000418f:	41 b8 06 00 00 00    	mov    $0x6,%r8d
   140004195:	e9 f5 fe ff ff       	jmp    14000408f <__pformat_gfloat+0x1f>
   14000419a:	66 0f 1f 44 00 00    	nopw   0x0(%rax,%rax,1)
   1400041a0:	8b 4c 24 48          	mov    0x48(%rsp),%ecx
   1400041a4:	49 89 d8             	mov    %rbx,%r8
   1400041a7:	48 89 c2             	mov    %rax,%rdx
   1400041aa:	e8 61 ee ff ff       	call   140003010 <__pformat_emit_inf_or_nan>
   1400041af:	48 89 f1             	mov    %rsi,%rcx
   1400041b2:	e8 69 10 00 00       	call   140005220 <__freedtoa>
   1400041b7:	90                   	nop
   1400041b8:	48 83 c4 50          	add    $0x50,%rsp
   1400041bc:	5b                   	pop    %rbx
   1400041bd:	5e                   	pop    %rsi
   1400041be:	5f                   	pop    %rdi
   1400041bf:	c3                   	ret
   1400041c0:	48 89 f1             	mov    %rsi,%rcx
   1400041c3:	e8 10 3f 00 00       	call   1400080d8 <strlen>
   1400041c8:	29 f8                	sub    %edi,%eax
   1400041ca:	89 43 10             	mov    %eax,0x10(%rbx)
   1400041cd:	0f 89 12 ff ff ff    	jns    1400040e5 <__pformat_gfloat+0x75>
   1400041d3:	8b 53 0c             	mov    0xc(%rbx),%edx
   1400041d6:	85 d2                	test   %edx,%edx
   1400041d8:	0f 8e 07 ff ff ff    	jle    1400040e5 <__pformat_gfloat+0x75>
   1400041de:	01 d0                	add    %edx,%eax
   1400041e0:	89 43 0c             	mov    %eax,0xc(%rbx)
   1400041e3:	e9 fd fe ff ff       	jmp    1400040e5 <__pformat_gfloat+0x75>
   1400041e8:	0f 1f 84 00 00 00 00 	nopl   0x0(%rax,%rax,1)
   1400041ef:	00 

00000001400041f0 <__pformat_emit_xfloat.isra.0>:
   1400041f0:	41 55                	push   %r13
   1400041f2:	41 54                	push   %r12
   1400041f4:	55                   	push   %rbp
   1400041f5:	57                   	push   %rdi
   1400041f6:	56                   	push   %rsi
   1400041f7:	53                   	push   %rbx
   1400041f8:	48 83 ec 58          	sub    $0x58,%rsp
   1400041fc:	45 8b 50 10          	mov    0x10(%r8),%r10d
   140004200:	49 89 c9             	mov    %rcx,%r9
   140004203:	4c 89 c3             	mov    %r8,%rbx
   140004206:	66 85 d2             	test   %dx,%dx
   140004209:	75 09                	jne    140004214 <__pformat_emit_xfloat.isra.0+0x24>
   14000420b:	48 85 c9             	test   %rcx,%rcx
   14000420e:	0f 84 a4 00 00 00    	je     1400042b8 <__pformat_emit_xfloat.isra.0+0xc8>
   140004214:	44 8d 42 fd          	lea    -0x3(%rdx),%r8d
   140004218:	41 83 fa 0e          	cmp    $0xe,%r10d
   14000421c:	0f 86 a3 00 00 00    	jbe    1400042c5 <__pformat_emit_xfloat.isra.0+0xd5>
   140004222:	49 0f bf e8          	movswq %r8w,%rbp
   140004226:	ba 10 00 00 00       	mov    $0x10,%edx
   14000422b:	4d 85 c9             	test   %r9,%r9
   14000422e:	0f 84 ec 03 00 00    	je     140004620 <__pformat_emit_xfloat.isra.0+0x430>
   140004234:	8b 4b 08             	mov    0x8(%rbx),%ecx
   140004237:	48 8d 7c 24 30       	lea    0x30(%rsp),%rdi
   14000423c:	48 89 fe             	mov    %rdi,%rsi
   14000423f:	41 89 cb             	mov    %ecx,%r11d
   140004242:	41 89 cc             	mov    %ecx,%r12d
   140004245:	41 83 e3 20          	and    $0x20,%r11d
   140004249:	41 81 e4 00 08 00 00 	and    $0x800,%r12d
   140004250:	eb 2d                	jmp    14000427f <__pformat_emit_xfloat.isra.0+0x8f>
   140004252:	66 0f 1f 44 00 00    	nopw   0x0(%rax,%rax,1)
   140004258:	4c 39 d7             	cmp    %r10,%rdi
   14000425b:	72 0b                	jb     140004268 <__pformat_emit_xfloat.isra.0+0x78>
   14000425d:	8b 73 10             	mov    0x10(%rbx),%esi
   140004260:	85 f6                	test   %esi,%esi
   140004262:	0f 88 68 03 00 00    	js     1400045d0 <__pformat_emit_xfloat.isra.0+0x3e0>
   140004268:	83 c0 30             	add    $0x30,%eax
   14000426b:	41 88 02             	mov    %al,(%r10)
   14000426e:	49 8d 72 01          	lea    0x1(%r10),%rsi
   140004272:	49 c1 e9 04          	shr    $0x4,%r9
   140004276:	83 ea 01             	sub    $0x1,%edx
   140004279:	0f 84 e1 01 00 00    	je     140004460 <__pformat_emit_xfloat.isra.0+0x270>
   14000427f:	44 89 c8             	mov    %r9d,%eax
   140004282:	83 e0 0f             	and    $0xf,%eax
   140004285:	83 fa 01             	cmp    $0x1,%edx
   140004288:	0f 84 92 01 00 00    	je     140004420 <__pformat_emit_xfloat.isra.0+0x230>
   14000428e:	44 8b 53 10          	mov    0x10(%rbx),%r10d
   140004292:	45 85 d2             	test   %r10d,%r10d
   140004295:	7e 08                	jle    14000429f <__pformat_emit_xfloat.isra.0+0xaf>
   140004297:	41 83 ea 01          	sub    $0x1,%r10d
   14000429b:	44 89 53 10          	mov    %r10d,0x10(%rbx)
   14000429f:	49 89 f2             	mov    %rsi,%r10
   1400042a2:	85 c0                	test   %eax,%eax
   1400042a4:	74 b2                	je     140004258 <__pformat_emit_xfloat.isra.0+0x68>
   1400042a6:	83 f8 09             	cmp    $0x9,%eax
   1400042a9:	76 bd                	jbe    140004268 <__pformat_emit_xfloat.isra.0+0x78>
   1400042ab:	83 c0 37             	add    $0x37,%eax
   1400042ae:	44 09 d8             	or     %r11d,%eax
   1400042b1:	eb b8                	jmp    14000426b <__pformat_emit_xfloat.isra.0+0x7b>
   1400042b3:	0f 1f 44 00 00       	nopl   0x0(%rax,%rax,1)
   1400042b8:	41 83 fa 0e          	cmp    $0xe,%r10d
   1400042bc:	0f 87 46 03 00 00    	ja     140004608 <__pformat_emit_xfloat.isra.0+0x418>
   1400042c2:	45 31 c0             	xor    %r8d,%r8d
   1400042c5:	b9 0e 00 00 00       	mov    $0xe,%ecx
   1400042ca:	b8 04 00 00 00       	mov    $0x4,%eax
   1400042cf:	49 d1 e9             	shr    %r9
   1400042d2:	44 29 d1             	sub    %r10d,%ecx
   1400042d5:	c1 e1 02             	shl    $0x2,%ecx
   1400042d8:	48 d3 e0             	shl    %cl,%rax
   1400042db:	b9 0f 00 00 00       	mov    $0xf,%ecx
   1400042e0:	44 29 d1             	sub    %r10d,%ecx
   1400042e3:	c1 e1 02             	shl    $0x2,%ecx
   1400042e6:	4c 01 c8             	add    %r9,%rax
   1400042e9:	0f 88 11 01 00 00    	js     140004400 <__pformat_emit_xfloat.isra.0+0x210>
   1400042ef:	48 01 c0             	add    %rax,%rax
   1400042f2:	48 d3 e8             	shr    %cl,%rax
   1400042f5:	49 89 c1             	mov    %rax,%r9
   1400042f8:	48 85 c0             	test   %rax,%rax
   1400042fb:	0f 85 0d 01 00 00    	jne    14000440e <__pformat_emit_xfloat.isra.0+0x21e>
   140004301:	45 85 d2             	test   %r10d,%r10d
   140004304:	0f 85 04 01 00 00    	jne    14000440e <__pformat_emit_xfloat.isra.0+0x21e>
   14000430a:	8b 4b 08             	mov    0x8(%rbx),%ecx
   14000430d:	49 0f bf e8          	movswq %r8w,%rbp
   140004311:	48 8d 7c 24 30       	lea    0x30(%rsp),%rdi
   140004316:	48 89 f8             	mov    %rdi,%rax
   140004319:	f6 c5 08             	test   $0x8,%ch
   14000431c:	74 0a                	je     140004328 <__pformat_emit_xfloat.isra.0+0x138>
   14000431e:	c6 44 24 30 2e       	movb   $0x2e,0x30(%rsp)
   140004323:	48 8d 44 24 31       	lea    0x31(%rsp),%rax
   140004328:	44 8b 53 0c          	mov    0xc(%rbx),%r10d
   14000432c:	c6 00 30             	movb   $0x30,(%rax)
   14000432f:	48 8d 70 01          	lea    0x1(%rax),%rsi
   140004333:	41 bc 02 00 00 00    	mov    $0x2,%r12d
   140004339:	45 85 d2             	test   %r10d,%r10d
   14000433c:	0f 8f 3a 01 00 00    	jg     14000447c <__pformat_emit_xfloat.isra.0+0x28c>
   140004342:	f6 c1 80             	test   $0x80,%cl
   140004345:	0f 85 f5 01 00 00    	jne    140004540 <__pformat_emit_xfloat.isra.0+0x350>
   14000434b:	f6 c5 01             	test   $0x1,%ch
   14000434e:	0f 85 9c 02 00 00    	jne    1400045f0 <__pformat_emit_xfloat.isra.0+0x400>
   140004354:	83 e1 40             	and    $0x40,%ecx
   140004357:	0f 85 e3 02 00 00    	jne    140004640 <__pformat_emit_xfloat.isra.0+0x450>
   14000435d:	48 89 da             	mov    %rbx,%rdx
   140004360:	b9 30 00 00 00       	mov    $0x30,%ecx
   140004365:	e8 16 e9 ff ff       	call   140002c80 <__pformat_putc>
   14000436a:	8b 4b 08             	mov    0x8(%rbx),%ecx
   14000436d:	48 89 da             	mov    %rbx,%rdx
   140004370:	83 e1 20             	and    $0x20,%ecx
   140004373:	83 c9 58             	or     $0x58,%ecx
   140004376:	e8 05 e9 ff ff       	call   140002c80 <__pformat_putc>
   14000437b:	8b 43 0c             	mov    0xc(%rbx),%eax
   14000437e:	85 c0                	test   %eax,%eax
   140004380:	7e 28                	jle    1400043aa <__pformat_emit_xfloat.isra.0+0x1ba>
   140004382:	f6 43 09 02          	testb  $0x2,0x9(%rbx)
   140004386:	74 22                	je     1400043aa <__pformat_emit_xfloat.isra.0+0x1ba>
   140004388:	83 e8 01             	sub    $0x1,%eax
   14000438b:	89 43 0c             	mov    %eax,0xc(%rbx)
   14000438e:	66 90                	xchg   %ax,%ax
   140004390:	48 89 da             	mov    %rbx,%rdx
   140004393:	b9 30 00 00 00       	mov    $0x30,%ecx
   140004398:	e8 e3 e8 ff ff       	call   140002c80 <__pformat_putc>
   14000439d:	8b 43 0c             	mov    0xc(%rbx),%eax
   1400043a0:	8d 50 ff             	lea    -0x1(%rax),%edx
   1400043a3:	89 53 0c             	mov    %edx,0xc(%rbx)
   1400043a6:	85 c0                	test   %eax,%eax
   1400043a8:	7f e6                	jg     140004390 <__pformat_emit_xfloat.isra.0+0x1a0>
   1400043aa:	4c 8d 6c 24 2e       	lea    0x2e(%rsp),%r13
   1400043af:	48 39 f7             	cmp    %rsi,%rdi
   1400043b2:	72 27                	jb     1400043db <__pformat_emit_xfloat.isra.0+0x1eb>
   1400043b4:	e9 ac 01 00 00       	jmp    140004565 <__pformat_emit_xfloat.isra.0+0x375>
   1400043b9:	0f 1f 80 00 00 00 00 	nopl   0x0(%rax)
   1400043c0:	0f b7 43 20          	movzwl 0x20(%rbx),%eax
   1400043c4:	66 89 44 24 2e       	mov    %ax,0x2e(%rsp)
   1400043c9:	66 85 c0             	test   %ax,%ax
   1400043cc:	0f 85 e6 01 00 00    	jne    1400045b8 <__pformat_emit_xfloat.isra.0+0x3c8>
   1400043d2:	48 39 fe             	cmp    %rdi,%rsi
   1400043d5:	0f 84 8a 01 00 00    	je     140004565 <__pformat_emit_xfloat.isra.0+0x375>
   1400043db:	0f be 4e ff          	movsbl -0x1(%rsi),%ecx
   1400043df:	48 83 ee 01          	sub    $0x1,%rsi
   1400043e3:	83 f9 2e             	cmp    $0x2e,%ecx
   1400043e6:	0f 84 bc 01 00 00    	je     1400045a8 <__pformat_emit_xfloat.isra.0+0x3b8>
   1400043ec:	83 f9 2c             	cmp    $0x2c,%ecx
   1400043ef:	74 cf                	je     1400043c0 <__pformat_emit_xfloat.isra.0+0x1d0>
   1400043f1:	48 89 da             	mov    %rbx,%rdx
   1400043f4:	e8 87 e8 ff ff       	call   140002c80 <__pformat_putc>
   1400043f9:	eb d7                	jmp    1400043d2 <__pformat_emit_xfloat.isra.0+0x1e2>
   1400043fb:	0f 1f 44 00 00       	nopl   0x0(%rax,%rax,1)
   140004400:	48 c1 e8 03          	shr    $0x3,%rax
   140004404:	41 83 c0 04          	add    $0x4,%r8d
   140004408:	48 d3 e8             	shr    %cl,%rax
   14000440b:	49 89 c1             	mov    %rax,%r9
   14000440e:	41 8d 52 01          	lea    0x1(%r10),%edx
   140004412:	49 0f bf e8          	movswq %r8w,%rbp
   140004416:	e9 19 fe ff ff       	jmp    140004234 <__pformat_emit_xfloat.isra.0+0x44>
   14000441b:	0f 1f 44 00 00       	nopl   0x0(%rax,%rax,1)
   140004420:	48 39 f7             	cmp    %rsi,%rdi
   140004423:	72 13                	jb     140004438 <__pformat_emit_xfloat.isra.0+0x248>
   140004425:	45 85 e4             	test   %r12d,%r12d
   140004428:	75 0e                	jne    140004438 <__pformat_emit_xfloat.isra.0+0x248>
   14000442a:	44 8b 53 10          	mov    0x10(%rbx),%r10d
   14000442e:	45 85 d2             	test   %r10d,%r10d
   140004431:	7e 15                	jle    140004448 <__pformat_emit_xfloat.isra.0+0x258>
   140004433:	0f 1f 44 00 00       	nopl   0x0(%rax,%rax,1)
   140004438:	c6 06 2e             	movb   $0x2e,(%rsi)
   14000443b:	4c 8d 56 01          	lea    0x1(%rsi),%r10
   14000443f:	e9 5e fe ff ff       	jmp    1400042a2 <__pformat_emit_xfloat.isra.0+0xb2>
   140004444:	0f 1f 40 00          	nopl   0x0(%rax)
   140004448:	85 c0                	test   %eax,%eax
   14000444a:	0f 85 20 02 00 00    	jne    140004670 <__pformat_emit_xfloat.isra.0+0x480>
   140004450:	45 85 d2             	test   %r10d,%r10d
   140004453:	75 0b                	jne    140004460 <__pformat_emit_xfloat.isra.0+0x270>
   140004455:	c6 06 30             	movb   $0x30,(%rsi)
   140004458:	48 83 c6 01          	add    $0x1,%rsi
   14000445c:	0f 1f 40 00          	nopl   0x0(%rax)
   140004460:	48 39 fe             	cmp    %rdi,%rsi
   140004463:	0f 84 ef 01 00 00    	je     140004658 <__pformat_emit_xfloat.isra.0+0x468>
   140004469:	44 8b 53 0c          	mov    0xc(%rbx),%r10d
   14000446d:	41 bc 02 00 00 00    	mov    $0x2,%r12d
   140004473:	45 85 d2             	test   %r10d,%r10d
   140004476:	0f 8e c6 fe ff ff    	jle    140004342 <__pformat_emit_xfloat.isra.0+0x152>
   14000447c:	8b 53 10             	mov    0x10(%rbx),%edx
   14000447f:	49 89 f1             	mov    %rsi,%r9
   140004482:	41 0f bf c0          	movswl %r8w,%eax
   140004486:	49 29 f9             	sub    %rdi,%r9
   140004489:	46 8d 1c 0a          	lea    (%rdx,%r9,1),%r11d
   14000448d:	85 d2                	test   %edx,%edx
   14000448f:	89 ca                	mov    %ecx,%edx
   140004491:	45 0f 4f cb          	cmovg  %r11d,%r9d
   140004495:	81 e2 c0 01 00 00    	and    $0x1c0,%edx
   14000449b:	83 fa 01             	cmp    $0x1,%edx
   14000449e:	49 0f bf d0          	movswq %r8w,%rdx
   1400044a2:	41 83 d9 fa          	sbb    $0xfffffffa,%r9d
   1400044a6:	48 69 d2 67 66 66 66 	imul   $0x66666667,%rdx,%rdx
   1400044ad:	c1 f8 1f             	sar    $0x1f,%eax
   1400044b0:	45 89 cb             	mov    %r9d,%r11d
   1400044b3:	48 c1 fa 22          	sar    $0x22,%rdx
   1400044b7:	29 c2                	sub    %eax,%edx
   1400044b9:	74 2e                	je     1400044e9 <__pformat_emit_xfloat.isra.0+0x2f9>
   1400044bb:	0f 1f 44 00 00       	nopl   0x0(%rax,%rax,1)
   1400044c0:	48 63 c2             	movslq %edx,%rax
   1400044c3:	c1 fa 1f             	sar    $0x1f,%edx
   1400044c6:	41 83 c3 01          	add    $0x1,%r11d
   1400044ca:	48 69 c0 67 66 66 66 	imul   $0x66666667,%rax,%rax
   1400044d1:	48 c1 f8 22          	sar    $0x22,%rax
   1400044d5:	29 d0                	sub    %edx,%eax
   1400044d7:	89 c2                	mov    %eax,%edx
   1400044d9:	75 e5                	jne    1400044c0 <__pformat_emit_xfloat.isra.0+0x2d0>
   1400044db:	45 89 dc             	mov    %r11d,%r12d
   1400044de:	45 29 cc             	sub    %r9d,%r12d
   1400044e1:	41 83 c4 02          	add    $0x2,%r12d
   1400044e5:	45 0f bf e4          	movswl %r12w,%r12d
   1400044e9:	45 39 da             	cmp    %r11d,%r10d
   1400044ec:	0f 8e ee 00 00 00    	jle    1400045e0 <__pformat_emit_xfloat.isra.0+0x3f0>
   1400044f2:	45 29 da             	sub    %r11d,%r10d
   1400044f5:	f6 c5 06             	test   $0x6,%ch
   1400044f8:	0f 85 e8 00 00 00    	jne    1400045e6 <__pformat_emit_xfloat.isra.0+0x3f6>
   1400044fe:	41 83 ea 01          	sub    $0x1,%r10d
   140004502:	44 89 53 0c          	mov    %r10d,0xc(%rbx)
   140004506:	66 2e 0f 1f 84 00 00 	cs nopw 0x0(%rax,%rax,1)
   14000450d:	00 00 00 
   140004510:	48 89 da             	mov    %rbx,%rdx
   140004513:	b9 20 00 00 00       	mov    $0x20,%ecx
   140004518:	e8 63 e7 ff ff       	call   140002c80 <__pformat_putc>
   14000451d:	8b 43 0c             	mov    0xc(%rbx),%eax
   140004520:	8d 50 ff             	lea    -0x1(%rax),%edx
   140004523:	89 53 0c             	mov    %edx,0xc(%rbx)
   140004526:	85 c0                	test   %eax,%eax
   140004528:	7f e6                	jg     140004510 <__pformat_emit_xfloat.isra.0+0x320>
   14000452a:	8b 4b 08             	mov    0x8(%rbx),%ecx
   14000452d:	f6 c1 80             	test   $0x80,%cl
   140004530:	0f 84 15 fe ff ff    	je     14000434b <__pformat_emit_xfloat.isra.0+0x15b>
   140004536:	66 2e 0f 1f 84 00 00 	cs nopw 0x0(%rax,%rax,1)
   14000453d:	00 00 00 
   140004540:	48 89 da             	mov    %rbx,%rdx
   140004543:	b9 2d 00 00 00       	mov    $0x2d,%ecx
   140004548:	e8 33 e7 ff ff       	call   140002c80 <__pformat_putc>
   14000454d:	e9 0b fe ff ff       	jmp    14000435d <__pformat_emit_xfloat.isra.0+0x16d>
   140004552:	66 0f 1f 44 00 00    	nopw   0x0(%rax,%rax,1)
   140004558:	48 89 da             	mov    %rbx,%rdx
   14000455b:	b9 30 00 00 00       	mov    $0x30,%ecx
   140004560:	e8 1b e7 ff ff       	call   140002c80 <__pformat_putc>
   140004565:	8b 43 10             	mov    0x10(%rbx),%eax
   140004568:	8d 50 ff             	lea    -0x1(%rax),%edx
   14000456b:	89 53 10             	mov    %edx,0x10(%rbx)
   14000456e:	85 c0                	test   %eax,%eax
   140004570:	7f e6                	jg     140004558 <__pformat_emit_xfloat.isra.0+0x368>
   140004572:	8b 4b 08             	mov    0x8(%rbx),%ecx
   140004575:	48 89 da             	mov    %rbx,%rdx
   140004578:	83 e1 20             	and    $0x20,%ecx
   14000457b:	83 c9 50             	or     $0x50,%ecx
   14000457e:	e8 fd e6 ff ff       	call   140002c80 <__pformat_putc>
   140004583:	44 01 63 0c          	add    %r12d,0xc(%rbx)
   140004587:	48 89 da             	mov    %rbx,%rdx
   14000458a:	48 89 e9             	mov    %rbp,%rcx
   14000458d:	81 4b 08 c0 01 00 00 	orl    $0x1c0,0x8(%rbx)
   140004594:	48 83 c4 58          	add    $0x58,%rsp
   140004598:	5b                   	pop    %rbx
   140004599:	5e                   	pop    %rsi
   14000459a:	5f                   	pop    %rdi
   14000459b:	5d                   	pop    %rbp
   14000459c:	41 5c                	pop    %r12
   14000459e:	41 5d                	pop    %r13
   1400045a0:	e9 bb ef ff ff       	jmp    140003560 <__pformat_int.isra.0>
   1400045a5:	0f 1f 00             	nopl   (%rax)
   1400045a8:	48 89 d9             	mov    %rbx,%rcx
   1400045ab:	e8 40 f3 ff ff       	call   1400038f0 <__pformat_emit_radix_point>
   1400045b0:	e9 1d fe ff ff       	jmp    1400043d2 <__pformat_emit_xfloat.isra.0+0x1e2>
   1400045b5:	0f 1f 00             	nopl   (%rax)
   1400045b8:	49 89 d8             	mov    %rbx,%r8
   1400045bb:	ba 01 00 00 00       	mov    $0x1,%edx
   1400045c0:	4c 89 e9             	mov    %r13,%rcx
   1400045c3:	e8 18 e7 ff ff       	call   140002ce0 <__pformat_wputchars>
   1400045c8:	e9 05 fe ff ff       	jmp    1400043d2 <__pformat_emit_xfloat.isra.0+0x1e2>
   1400045cd:	0f 1f 00             	nopl   (%rax)
   1400045d0:	4c 89 d6             	mov    %r10,%rsi
   1400045d3:	e9 9a fc ff ff       	jmp    140004272 <__pformat_emit_xfloat.isra.0+0x82>
   1400045d8:	0f 1f 84 00 00 00 00 	nopl   0x0(%rax,%rax,1)
   1400045df:	00 
   1400045e0:	41 ba ff ff ff ff    	mov    $0xffffffff,%r10d
   1400045e6:	44 89 53 0c          	mov    %r10d,0xc(%rbx)
   1400045ea:	e9 53 fd ff ff       	jmp    140004342 <__pformat_emit_xfloat.isra.0+0x152>
   1400045ef:	90                   	nop
   1400045f0:	48 89 da             	mov    %rbx,%rdx
   1400045f3:	b9 2b 00 00 00       	mov    $0x2b,%ecx
   1400045f8:	e8 83 e6 ff ff       	call   140002c80 <__pformat_putc>
   1400045fd:	e9 5b fd ff ff       	jmp    14000435d <__pformat_emit_xfloat.isra.0+0x16d>
   140004602:	66 0f 1f 44 00 00    	nopw   0x0(%rax,%rax,1)
   140004608:	45 85 d2             	test   %r10d,%r10d
   14000460b:	7e 6b                	jle    140004678 <__pformat_emit_xfloat.isra.0+0x488>
   14000460d:	31 ed                	xor    %ebp,%ebp
   14000460f:	45 31 c0             	xor    %r8d,%r8d
   140004612:	ba 10 00 00 00       	mov    $0x10,%edx
   140004617:	45 31 c9             	xor    %r9d,%r9d
   14000461a:	e9 15 fc ff ff       	jmp    140004234 <__pformat_emit_xfloat.isra.0+0x44>
   14000461f:	90                   	nop
   140004620:	45 85 d2             	test   %r10d,%r10d
   140004623:	0f 8f 0b fc ff ff    	jg     140004234 <__pformat_emit_xfloat.isra.0+0x44>
   140004629:	8b 4b 08             	mov    0x8(%rbx),%ecx
   14000462c:	48 8d 7c 24 30       	lea    0x30(%rsp),%rdi
   140004631:	e9 e0 fc ff ff       	jmp    140004316 <__pformat_emit_xfloat.isra.0+0x126>
   140004636:	66 2e 0f 1f 84 00 00 	cs nopw 0x0(%rax,%rax,1)
   14000463d:	00 00 00 
   140004640:	48 89 da             	mov    %rbx,%rdx
   140004643:	b9 20 00 00 00       	mov    $0x20,%ecx
   140004648:	e8 33 e6 ff ff       	call   140002c80 <__pformat_putc>
   14000464d:	e9 0b fd ff ff       	jmp    14000435d <__pformat_emit_xfloat.isra.0+0x16d>
   140004652:	66 0f 1f 44 00 00    	nopw   0x0(%rax,%rax,1)
   140004658:	8b 43 10             	mov    0x10(%rbx),%eax
   14000465b:	85 c0                	test   %eax,%eax
   14000465d:	0f 8f bb fc ff ff    	jg     14000431e <__pformat_emit_xfloat.isra.0+0x12e>
   140004663:	e9 ae fc ff ff       	jmp    140004316 <__pformat_emit_xfloat.isra.0+0x126>
   140004668:	0f 1f 84 00 00 00 00 	nopl   0x0(%rax,%rax,1)
   14000466f:	00 
   140004670:	49 89 f2             	mov    %rsi,%r10
   140004673:	e9 2e fc ff ff       	jmp    1400042a6 <__pformat_emit_xfloat.isra.0+0xb6>
   140004678:	41 8b 48 08          	mov    0x8(%r8),%ecx
   14000467c:	31 ed                	xor    %ebp,%ebp
   14000467e:	45 31 c0             	xor    %r8d,%r8d
   140004681:	48 8d 7c 24 30       	lea    0x30(%rsp),%rdi
   140004686:	e9 8b fc ff ff       	jmp    140004316 <__pformat_emit_xfloat.isra.0+0x126>
   14000468b:	0f 1f 44 00 00       	nopl   0x0(%rax,%rax,1)

0000000140004690 <__mingw_pformat>:
   140004690:	41 57                	push   %r15
   140004692:	41 56                	push   %r14
   140004694:	41 55                	push   %r13
   140004696:	41 54                	push   %r12
   140004698:	55                   	push   %rbp
   140004699:	57                   	push   %rdi
   14000469a:	56                   	push   %rsi
   14000469b:	53                   	push   %rbx
   14000469c:	48 81 ec a8 00 00 00 	sub    $0xa8,%rsp
   1400046a3:	4c 8b ac 24 10 01 00 	mov    0x110(%rsp),%r13
   1400046aa:	00 
   1400046ab:	89 cf                	mov    %ecx,%edi
   1400046ad:	48 89 d5             	mov    %rdx,%rbp
   1400046b0:	44 89 c3             	mov    %r8d,%ebx
   1400046b3:	4c 89 ce             	mov    %r9,%rsi
   1400046b6:	e8 8d 39 00 00       	call   140008048 <_errno>
   1400046bb:	0f be 0e             	movsbl (%rsi),%ecx
   1400046be:	81 e7 00 60 00 00    	and    $0x6000,%edi
   1400046c4:	31 d2                	xor    %edx,%edx
   1400046c6:	8b 00                	mov    (%rax),%eax
   1400046c8:	89 9c 24 98 00 00 00 	mov    %ebx,0x98(%rsp)
   1400046cf:	48 8d 5e 01          	lea    0x1(%rsi),%rbx
   1400046d3:	48 89 6c 24 70       	mov    %rbp,0x70(%rsp)
   1400046d8:	89 44 24 30          	mov    %eax,0x30(%rsp)
   1400046dc:	48 b8 ff ff ff ff fd 	movabs $0xfffffffdffffffff,%rax
   1400046e3:	ff ff ff 
   1400046e6:	48 89 84 24 80 00 00 	mov    %rax,0x80(%rsp)
   1400046ed:	00 
   1400046ee:	31 c0                	xor    %eax,%eax
   1400046f0:	66 89 84 24 88 00 00 	mov    %ax,0x88(%rsp)
   1400046f7:	00 
   1400046f8:	89 c8                	mov    %ecx,%eax
   1400046fa:	89 7c 24 78          	mov    %edi,0x78(%rsp)
   1400046fe:	c7 44 24 7c ff ff ff 	movl   $0xffffffff,0x7c(%rsp)
   140004705:	ff 
   140004706:	c7 84 24 8c 00 00 00 	movl   $0x0,0x8c(%rsp)
   14000470d:	00 00 00 00 
   140004711:	66 89 94 24 90 00 00 	mov    %dx,0x90(%rsp)
   140004718:	00 
   140004719:	c7 84 24 94 00 00 00 	movl   $0x0,0x94(%rsp)
   140004720:	00 00 00 00 
   140004724:	c7 84 24 9c 00 00 00 	movl   $0xffffffff,0x9c(%rsp)
   14000472b:	ff ff ff ff 
   14000472f:	85 c9                	test   %ecx,%ecx
   140004731:	0f 84 10 01 00 00    	je     140004847 <__mingw_pformat+0x1b7>
   140004737:	4c 8d 7c 24 7c       	lea    0x7c(%rsp),%r15
   14000473c:	4c 8d 25 6d 5d 00 00 	lea    0x5d6d(%rip),%r12        # 14000a4b0 <.rdata+0x20>
   140004743:	eb 49                	jmp    14000478e <__mingw_pformat+0xfe>
   140004745:	0f 1f 00             	nopl   (%rax)
   140004748:	8b 54 24 78          	mov    0x78(%rsp),%edx
   14000474c:	8b b4 24 94 00 00 00 	mov    0x94(%rsp),%esi
   140004753:	f6 c6 40             	test   $0x40,%dh
   140004756:	75 09                	jne    140004761 <__mingw_pformat+0xd1>
   140004758:	39 b4 24 98 00 00 00 	cmp    %esi,0x98(%rsp)
   14000475f:	7e 11                	jle    140004772 <__mingw_pformat+0xe2>
   140004761:	4c 8b 44 24 70       	mov    0x70(%rsp),%r8
   140004766:	80 e6 20             	and    $0x20,%dh
   140004769:	75 6d                	jne    1400047d8 <__mingw_pformat+0x148>
   14000476b:	48 63 d6             	movslq %esi,%rdx
   14000476e:	41 88 04 10          	mov    %al,(%r8,%rdx,1)
   140004772:	83 c6 01             	add    $0x1,%esi
   140004775:	89 b4 24 94 00 00 00 	mov    %esi,0x94(%rsp)
   14000477c:	0f b6 03             	movzbl (%rbx),%eax
   14000477f:	48 83 c3 01          	add    $0x1,%rbx
   140004783:	0f be c8             	movsbl %al,%ecx
   140004786:	85 c9                	test   %ecx,%ecx
   140004788:	0f 84 b2 00 00 00    	je     140004840 <__mingw_pformat+0x1b0>
   14000478e:	83 f9 25             	cmp    $0x25,%ecx
   140004791:	75 b5                	jne    140004748 <__mingw_pformat+0xb8>
   140004793:	0f b6 03             	movzbl (%rbx),%eax
   140004796:	89 7c 24 78          	mov    %edi,0x78(%rsp)
   14000479a:	48 c7 44 24 7c ff ff 	movq   $0xffffffffffffffff,0x7c(%rsp)
   1400047a1:	ff ff 
   1400047a3:	84 c0                	test   %al,%al
   1400047a5:	0f 84 95 00 00 00    	je     140004840 <__mingw_pformat+0x1b0>
   1400047ab:	48 89 de             	mov    %rbx,%rsi
   1400047ae:	4d 89 fb             	mov    %r15,%r11
   1400047b1:	45 31 d2             	xor    %r10d,%r10d
   1400047b4:	45 31 f6             	xor    %r14d,%r14d
   1400047b7:	8d 50 e0             	lea    -0x20(%rax),%edx
   1400047ba:	48 8d 6e 01          	lea    0x1(%rsi),%rbp
   1400047be:	0f be c8             	movsbl %al,%ecx
   1400047c1:	80 fa 5a             	cmp    $0x5a,%dl
   1400047c4:	77 22                	ja     1400047e8 <__mingw_pformat+0x158>
   1400047c6:	0f b6 d2             	movzbl %dl,%edx
   1400047c9:	49 63 14 94          	movslq (%r12,%rdx,4),%rdx
   1400047cd:	4c 01 e2             	add    %r12,%rdx
   1400047d0:	ff e2                	jmp    *%rdx
   1400047d2:	66 0f 1f 44 00 00    	nopw   0x0(%rax,%rax,1)
   1400047d8:	4c 89 c2             	mov    %r8,%rdx
   1400047db:	e8 b0 38 00 00       	call   140008090 <fputc>
   1400047e0:	eb 90                	jmp    140004772 <__mingw_pformat+0xe2>
   1400047e2:	66 0f 1f 44 00 00    	nopw   0x0(%rax,%rax,1)
   1400047e8:	83 e8 30             	sub    $0x30,%eax
   1400047eb:	3c 09                	cmp    $0x9,%al
   1400047ed:	0f 87 14 02 00 00    	ja     140004a07 <__mingw_pformat+0x377>
   1400047f3:	41 83 fe 03          	cmp    $0x3,%r14d
   1400047f7:	0f 87 0a 02 00 00    	ja     140004a07 <__mingw_pformat+0x377>
   1400047fd:	45 85 f6             	test   %r14d,%r14d
   140004800:	0f 85 43 07 00 00    	jne    140004f49 <__mingw_pformat+0x8b9>
   140004806:	41 be 01 00 00 00    	mov    $0x1,%r14d
   14000480c:	4d 85 db             	test   %r11,%r11
   14000480f:	74 1f                	je     140004830 <__mingw_pformat+0x1a0>
   140004811:	41 8b 03             	mov    (%r11),%eax
   140004814:	85 c0                	test   %eax,%eax
   140004816:	0f 88 e6 07 00 00    	js     140005002 <__mingw_pformat+0x972>
   14000481c:	8d 04 80             	lea    (%rax,%rax,4),%eax
   14000481f:	8d 44 41 d0          	lea    -0x30(%rcx,%rax,2),%eax
   140004823:	41 89 03             	mov    %eax,(%r11)
   140004826:	66 2e 0f 1f 84 00 00 	cs nopw 0x0(%rax,%rax,1)
   14000482d:	00 00 00 
   140004830:	0f b6 46 01          	movzbl 0x1(%rsi),%eax
   140004834:	48 89 ee             	mov    %rbp,%rsi
   140004837:	84 c0                	test   %al,%al
   140004839:	0f 85 78 ff ff ff    	jne    1400047b7 <__mingw_pformat+0x127>
   14000483f:	90                   	nop
   140004840:	8b 8c 24 94 00 00 00 	mov    0x94(%rsp),%ecx
   140004847:	89 c8                	mov    %ecx,%eax
   140004849:	48 81 c4 a8 00 00 00 	add    $0xa8,%rsp
   140004850:	5b                   	pop    %rbx
   140004851:	5e                   	pop    %rsi
   140004852:	5f                   	pop    %rdi
   140004853:	5d                   	pop    %rbp
   140004854:	41 5c                	pop    %r12
   140004856:	41 5d                	pop    %r13
   140004858:	41 5e                	pop    %r14
   14000485a:	41 5f                	pop    %r15
   14000485c:	c3                   	ret
   14000485d:	0f 1f 00             	nopl   (%rax)
   140004860:	81 64 24 78 ff fe ff 	andl   $0xfffffeff,0x78(%rsp)
   140004867:	ff 
   140004868:	41 83 fa 03          	cmp    $0x3,%r10d
   14000486c:	0f 84 d0 07 00 00    	je     140005042 <__mingw_pformat+0x9b2>
   140004872:	41 83 fa 02          	cmp    $0x2,%r10d
   140004876:	0f 84 59 08 00 00    	je     1400050d5 <__mingw_pformat+0xa45>
   14000487c:	41 8b 45 00          	mov    0x0(%r13),%eax
   140004880:	41 83 fa 01          	cmp    $0x1,%r10d
   140004884:	0f 84 68 07 00 00    	je     140004ff2 <__mingw_pformat+0x962>
   14000488a:	89 c2                	mov    %eax,%edx
   14000488c:	41 83 fa 05          	cmp    $0x5,%r10d
   140004890:	0f b6 c0             	movzbl %al,%eax
   140004893:	48 0f 45 c2          	cmovne %rdx,%rax
   140004897:	48 89 44 24 60       	mov    %rax,0x60(%rsp)
   14000489c:	83 f9 75             	cmp    $0x75,%ecx
   14000489f:	0f 84 1e 08 00 00    	je     1400050c3 <__mingw_pformat+0xa33>
   1400048a5:	4c 8d 44 24 70       	lea    0x70(%rsp),%r8
   1400048aa:	48 89 c2             	mov    %rax,%rdx
   1400048ad:	e8 fe e7 ff ff       	call   1400030b0 <__pformat_xint.isra.0>
   1400048b2:	e9 a9 02 00 00       	jmp    140004b60 <__mingw_pformat+0x4d0>
   1400048b7:	66 0f 1f 84 00 00 00 	nopw   0x0(%rax,%rax,1)
   1400048be:	00 00 
   1400048c0:	0f b6 46 01          	movzbl 0x1(%rsi),%eax
   1400048c4:	41 ba 03 00 00 00    	mov    $0x3,%r10d
   1400048ca:	48 89 ee             	mov    %rbp,%rsi
   1400048cd:	41 be 04 00 00 00    	mov    $0x4,%r14d
   1400048d3:	e9 5f ff ff ff       	jmp    140004837 <__mingw_pformat+0x1a7>
   1400048d8:	81 4c 24 78 80 00 00 	orl    $0x80,0x78(%rsp)
   1400048df:	00 
   1400048e0:	49 8d 5d 08          	lea    0x8(%r13),%rbx
   1400048e4:	41 83 fa 03          	cmp    $0x3,%r10d
   1400048e8:	0f 84 4b 07 00 00    	je     140005039 <__mingw_pformat+0x9a9>
   1400048ee:	49 63 4d 00          	movslq 0x0(%r13),%rcx
   1400048f2:	41 83 fa 02          	cmp    $0x2,%r10d
   1400048f6:	74 16                	je     14000490e <__mingw_pformat+0x27e>
   1400048f8:	41 83 fa 01          	cmp    $0x1,%r10d
   1400048fc:	0f 84 e7 06 00 00    	je     140004fe9 <__mingw_pformat+0x959>
   140004902:	48 0f be c1          	movsbq %cl,%rax
   140004906:	41 83 fa 05          	cmp    $0x5,%r10d
   14000490a:	48 0f 44 c8          	cmove  %rax,%rcx
   14000490e:	48 8d 54 24 70       	lea    0x70(%rsp),%rdx
   140004913:	49 89 dd             	mov    %rbx,%r13
   140004916:	48 89 eb             	mov    %rbp,%rbx
   140004919:	e8 42 ec ff ff       	call   140003560 <__pformat_int.isra.0>
   14000491e:	e9 59 fe ff ff       	jmp    14000477c <__mingw_pformat+0xec>
