	.file	"main.c"
	.text
.Ltext0:
	.file 0 "/mnt/c/Users/Zach/OneDrive/Documents/GitHub/C/cs3050/lab3_hash" "main.c"
	.globl	FillName
	.type	FillName, @function
FillName:
.LFB0:
	.file 1 "main.c"
	.loc 1 25 1
	.cfi_startproc
	endbr64
	pushq	%rbp
	.cfi_def_cfa_offset 16
	.cfi_offset 6, -16
	movq	%rsp, %rbp
	.cfi_def_cfa_register 6
	movq	%rdi, -24(%rbp)
	movl	%esi, %eax
	movb	%al, -28(%rbp)
.LBB2:
	.loc 1 26 11
	movl	$0, -4(%rbp)
	.loc 1 26 2
	jmp	.L2
.L3:
	.loc 1 28 7 discriminator 3
	movl	-4(%rbp), %eax
	movslq	%eax, %rdx
	movq	-24(%rbp), %rax
	addq	%rax, %rdx
	.loc 1 28 10 discriminator 3
	movzbl	-28(%rbp), %eax
	movb	%al, (%rdx)
	.loc 1 26 28 discriminator 3
	addl	$1, -4(%rbp)
.L2:
	.loc 1 26 16 discriminator 1
	cmpl	$5, -4(%rbp)
	jle	.L3
.LBE2:
	.loc 1 32 6
	movq	-24(%rbp), %rax
	addq	$6, %rax
	.loc 1 32 17
	movb	$0, (%rax)
	.loc 1 33 1
	nop
	popq	%rbp
	.cfi_def_cfa 7, 8
	ret
	.cfi_endproc
.LFE0:
	.size	FillName, .-FillName
	.globl	FillCustomer
	.type	FillCustomer, @function
FillCustomer:
.LFB1:
	.loc 1 37 1
	.cfi_startproc
	endbr64
	pushq	%rbp
	.cfi_def_cfa_offset 16
	.cfi_offset 6, -16
	movq	%rsp, %rbp
	.cfi_def_cfa_register 6
	subq	$8, %rsp
	movq	%rdi, -8(%rbp)
	.loc 1 42 2
	movzbl	cFNameStart.2(%rip), %eax
	movsbl	%al, %edx
	.loc 1 42 20
	movq	-8(%rbp), %rax
	.loc 1 42 2
	movl	%edx, %esi
	movq	%rax, %rdi
	call	FillName
	.loc 1 43 2
	movzbl	cLNameStart.1(%rip), %eax
	movsbl	%al, %eax
	.loc 1 43 20
	movq	-8(%rbp), %rdx
	addq	$7, %rdx
	.loc 1 43 2
	movl	%eax, %esi
	movq	%rdx, %rdi
	call	FillName
	.loc 1 47 13
	movzbl	cFNameStart.2(%rip), %eax
	addl	$1, %eax
	movb	%al, cFNameStart.2(%rip)
	.loc 1 48 17
	movzbl	cFNameStart.2(%rip), %eax
	.loc 1 48 5
	cmpb	$90, %al
	jle	.L5
	.loc 1 50 14
	movb	$65, cFNameStart.2(%rip)
	.loc 1 51 14
	movzbl	cLNameStart.1(%rip), %eax
	addl	$1, %eax
	movb	%al, cLNameStart.1(%rip)
.L5:
	.loc 1 53 17
	movzbl	cLNameStart.1(%rip), %eax
	.loc 1 53 5
	cmpb	$90, %al
	jle	.L6
	.loc 1 53 36 discriminator 1
	movzbl	cLNameStart.1(%rip), %eax
	.loc 1 53 22 discriminator 1
	cmpb	$96, %al
	jg	.L6
	.loc 1 55 14
	movb	$97, cLNameStart.1(%rip)
.L6:
	.loc 1 57 17
	movzbl	cLNameStart.1(%rip), %eax
	.loc 1 57 5
	cmpb	$122, %al
	jle	.L7
	.loc 1 59 14
	movb	$65, cLNameStart.1(%rip)
.L7:
	.loc 1 62 36
	movl	lastAN.0(%rip), %eax
	leal	1(%rax), %edx
	movl	%edx, lastAN.0(%rip)
	.loc 1 62 28
	movq	-8(%rbp), %rdx
	movl	%eax, 16(%rdx)
	.loc 1 63 1
	nop
	leave
	.cfi_def_cfa 7, 8
	ret
	.cfi_endproc
.LFE1:
	.size	FillCustomer, .-FillCustomer
	.globl	FillCustomers
	.type	FillCustomers, @function
FillCustomers:
.LFB2:
	.loc 1 67 1
	.cfi_startproc
	endbr64
	pushq	%rbp
	.cfi_def_cfa_offset 16
	.cfi_offset 6, -16
	movq	%rsp, %rbp
	.cfi_def_cfa_register 6
	subq	$32, %rsp
	movq	%rdi, -24(%rbp)
	movl	%esi, -28(%rbp)
.LBB3:
	.loc 1 68 11
	movl	$0, -4(%rbp)
	.loc 1 68 2
	jmp	.L9
.L10:
	.loc 1 70 26 discriminator 3
	movl	-4(%rbp), %eax
	movslq	%eax, %rdx
	movq	%rdx, %rax
	salq	$2, %rax
	addq	%rdx, %rax
	salq	$2, %rax
	movq	%rax, %rdx
	.loc 1 70 3 discriminator 3
	movq	-24(%rbp), %rax
	addq	%rdx, %rax
	movq	%rax, %rdi
	call	FillCustomer
	.loc 1 68 24 discriminator 3
	addl	$1, -4(%rbp)
.L9:
	.loc 1 68 16 discriminator 1
	movl	-4(%rbp), %eax
	cmpl	-28(%rbp), %eax
	jl	.L10
.LBE3:
	.loc 1 72 1
	nop
	nop
	leave
	.cfi_def_cfa 7, 8
	ret
	.cfi_endproc
.LFE2:
	.size	FillCustomers, .-FillCustomers
	.section	.rodata
.LC0:
	.string	"%s %s (%d)\n"
	.text
	.globl	PrintCustomers
	.type	PrintCustomers, @function
PrintCustomers:
.LFB3:
	.loc 1 75 1
	.cfi_startproc
	endbr64
	pushq	%rbp
	.cfi_def_cfa_offset 16
	.cfi_offset 6, -16
	movq	%rsp, %rbp
	.cfi_def_cfa_register 6
	subq	$32, %rsp
	movq	%rdi, -24(%rbp)
	movl	%esi, -28(%rbp)
.LBB4:
	.loc 1 76 11
	movl	$0, -4(%rbp)
	.loc 1 76 2
	jmp	.L12
.L13:
	.loc 1 81 14 discriminator 3
	movl	-4(%rbp), %eax
	movslq	%eax, %rdx
	movq	%rdx, %rax
	salq	$2, %rax
	addq	%rdx, %rax
	salq	$2, %rax
	movq	%rax, %rdx
	movq	-24(%rbp), %rax
	addq	%rdx, %rax
	.loc 1 78 3 discriminator 3
	movl	16(%rax), %edx
	.loc 1 80 14 discriminator 3
	movl	-4(%rbp), %eax
	movslq	%eax, %rcx
	movq	%rcx, %rax
	salq	$2, %rax
	addq	%rcx, %rax
	salq	$2, %rax
	movq	%rax, %rcx
	movq	-24(%rbp), %rax
	addq	%rcx, %rax
	.loc 1 80 17 discriminator 3
	leaq	7(%rax), %rsi
	.loc 1 79 14 discriminator 3
	movl	-4(%rbp), %eax
	movslq	%eax, %rcx
	movq	%rcx, %rax
	salq	$2, %rax
	addq	%rcx, %rax
	salq	$2, %rax
	movq	%rax, %rcx
	movq	-24(%rbp), %rax
	addq	%rcx, %rax
	.loc 1 78 3 discriminator 3
	movl	%edx, %ecx
	movq	%rsi, %rdx
	movq	%rax, %rsi
	leaq	.LC0(%rip), %rax
	movq	%rax, %rdi
	movl	$0, %eax
	call	printf@PLT
	.loc 1 76 24 discriminator 3
	addl	$1, -4(%rbp)
.L12:
	.loc 1 76 16 discriminator 1
	movl	-4(%rbp), %eax
	cmpl	-28(%rbp), %eax
	jl	.L13
.LBE4:
	.loc 1 83 1
	nop
	nop
	leave
	.cfi_def_cfa 7, 8
	ret
	.cfi_endproc
.LFE3:
	.size	PrintCustomers, .-PrintCustomers
	.globl	Getkey
	.type	Getkey, @function
Getkey:
.LFB4:
	.loc 1 88 1
	.cfi_startproc
	endbr64
	pushq	%rbp
	.cfi_def_cfa_offset 16
	.cfi_offset 6, -16
	movq	%rsp, %rbp
	.cfi_def_cfa_register 6
	.loc 1 89 31
	movzbl	23(%rbp), %eax
	.loc 1 89 6
	movsbl	%al, %eax
	movl	%eax, -4(%rbp)
	.loc 1 90 5
	sall	$8, -4(%rbp)
	.loc 1 91 27
	movzbl	16(%rbp), %eax
	movsbl	%al, %eax
	.loc 1 91 5
	addl	%eax, -4(%rbp)
	.loc 1 92 9
	movl	-4(%rbp), %eax
	.loc 1 93 1
	popq	%rbp
	.cfi_def_cfa 7, 8
	ret
	.cfi_endproc
.LFE4:
	.size	Getkey, .-Getkey
	.section	.rodata
.LC1:
	.string	"%d "
	.text
	.globl	PrintCustomerKeys
	.type	PrintCustomerKeys, @function
PrintCustomerKeys:
.LFB5:
	.loc 1 96 1
	.cfi_startproc
	endbr64
	pushq	%rbp
	.cfi_def_cfa_offset 16
	.cfi_offset 6, -16
	movq	%rsp, %rbp
	.cfi_def_cfa_register 6
	subq	$32, %rsp
	movq	%rdi, -24(%rbp)
	movl	%esi, -28(%rbp)
.LBB5:
	.loc 1 97 11
	movl	$0, -4(%rbp)
	.loc 1 97 2
	jmp	.L17
.L18:
	.loc 1 99 32 discriminator 3
	movl	-4(%rbp), %eax
	movslq	%eax, %rdx
	movq	%rdx, %rax
	salq	$2, %rax
	addq	%rdx, %rax
	salq	$2, %rax
	movq	%rax, %rdx
	movq	-24(%rbp), %rax
	leaq	(%rdx,%rax), %rcx
	.loc 1 99 3 discriminator 3
	subq	$24, %rsp
	movq	%rsp, %rsi
	movq	(%rcx), %rax
	movq	8(%rcx), %rdx
	movq	%rax, (%rsi)
	movq	%rdx, 8(%rsi)
	movl	16(%rcx), %eax
	movl	%eax, 16(%rsi)
	call	Getkey
	addq	$24, %rsp
	movl	%eax, %esi
	leaq	.LC1(%rip), %rax
	movq	%rax, %rdi
	movl	$0, %eax
	call	printf@PLT
	.loc 1 97 24 discriminator 3
	addl	$1, -4(%rbp)
.L17:
	.loc 1 97 16 discriminator 1
	movl	-4(%rbp), %eax
	cmpl	-28(%rbp), %eax
	jl	.L18
.LBE5:
	.loc 1 101 2
	movl	$10, %edi
	call	putchar@PLT
	.loc 1 102 1
	nop
	leave
	.cfi_def_cfa 7, 8
	ret
	.cfi_endproc
.LFE5:
	.size	PrintCustomerKeys, .-PrintCustomerKeys
	.section	.rodata
	.align 8
.LC2:
	.string	"\n\nFail Collisions - Division Method:"
	.align 8
.LC3:
	.string	"******* Found %d, Not Found %d *******\n"
	.align 8
.LC4:
	.string	"\n\nFail Collisions - Multiplication Method:"
	.align 8
.LC5:
	.string	"\n\nChain on Collisions - Multiplication Method:"
	.text
	.globl	main
	.type	main, @function
main:
.LFB6:
	.loc 1 105 1
	.cfi_startproc
	endbr64
	pushq	%rbp
	.cfi_def_cfa_offset 16
	.cfi_offset 6, -16
	movq	%rsp, %rbp
	.cfi_def_cfa_register 6
	leaq	-20480(%rsp), %r11
.LPSRL0:
	subq	$4096, %rsp
	orq	$0, (%rsp)
	cmpq	%r11, %rsp
	jne	.LPSRL0
	subq	$2112, %rsp
	.loc 1 105 1
	movq	%fs:40, %rax
	movq	%rax, -8(%rbp)
	xorl	%eax, %eax
	.loc 1 109 2
	leaq	-20496(%rbp), %rax
	movl	$1024, %esi
	movq	%rax, %rdi
	call	FillCustomers
	.loc 1 115 2
	leaq	-22496(%rbp), %rax
	movl	$2000, %edx
	movl	$0, %esi
	movq	%rax, %rdi
	call	memset@PLT
	.loc 1 119 2
	leaq	.LC2(%rip), %rax
	movq	%rax, %rdi
	call	puts@PLT
.LBB6:
	.loc 1 120 11
	movl	$0, -22584(%rbp)
	.loc 1 120 2
	jmp	.L20
.L21:
.LBB7:
	.loc 1 122 13
	subq	$8, %rsp
	movl	-22584(%rbp), %eax
	movslq	%eax, %rdx
	movq	%rdx, %rax
	salq	$2, %rax
	addq	%rdx, %rax
	salq	$2, %rax
	addq	%rbp, %rax
	leaq	-20496(%rax), %rcx
	subq	$24, %rsp
	movq	%rsp, %rsi
	movq	(%rcx), %rax
	movq	8(%rcx), %rdx
	movq	%rax, (%rsi)
	movq	%rdx, 8(%rsi)
	movl	16(%rcx), %eax
	movl	%eax, 16(%rsi)
	call	Getkey
	addq	$32, %rsp
	movl	%eax, -22532(%rbp)
	.loc 1 124 14
	leaq	-20496(%rbp), %rcx
	movl	-22584(%rbp), %eax
	movslq	%eax, %rdx
	movq	%rdx, %rax
	salq	$2, %rax
	addq	%rdx, %rax
	salq	$2, %rax
	leaq	(%rcx,%rax), %rsi
	.loc 1 123 11
	movl	-22532(%rbp), %edx
	leaq	-22496(%rbp), %rax
	movq	DivMethod@GOTPCREL(%rip), %rcx
	movq	%rcx, %r9
	movq	%rsi, %r8
	movl	%edx, %ecx
	movl	$100, %edx
	movl	$20, %esi
	movq	%rax, %rdi
	call	InsertFailCollision@PLT
.LBE7:
	.loc 1 120 28
	addl	$1, -22584(%rbp)
.L20:
	.loc 1 120 16 discriminator 1
	cmpl	$1023, -22584(%rbp)
	jle	.L21
.LBE6:
	.loc 1 131 6
	movl	$0, -22580(%rbp)
	.loc 1 132 6
	movl	$0, -22576(%rbp)
.LBB8:
	.loc 1 133 11
	movl	$0, -22572(%rbp)
	.loc 1 133 2
	jmp	.L22
.L25:
.LBB9:
	.loc 1 135 13
	subq	$8, %rsp
	movl	-22572(%rbp), %eax
	movslq	%eax, %rdx
	movq	%rdx, %rax
	salq	$2, %rax
	addq	%rdx, %rax
	salq	$2, %rax
	addq	%rbp, %rax
	leaq	-20496(%rax), %rcx
	subq	$24, %rsp
	movq	%rsp, %rsi
	movq	(%rcx), %rax
	movq	8(%rcx), %rdx
	movq	%rax, (%rsi)
	movq	%rdx, 8(%rsi)
	movl	16(%rcx), %eax
	movl	%eax, 16(%rsi)
	call	Getkey
	addq	$32, %rsp
	movl	%eax, -22536(%rbp)
	.loc 1 136 26
	movl	-22536(%rbp), %esi
	leaq	-22496(%rbp), %rax
	movq	DivMethod@GOTPCREL(%rip), %rdx
	movq	%rdx, %rcx
	movl	$20, %edx
	movq	%rax, %rdi
	call	SearchNoCollision@PLT
	movq	%rax, -22504(%rbp)
	.loc 1 137 6
	cmpq	$0, -22504(%rbp)
	je	.L23
	.loc 1 137 26 discriminator 1
	subq	$8, %rsp
	movq	-22504(%rbp), %rcx
	subq	$24, %rsp
	movq	%rsp, %rsi
	movq	(%rcx), %rax
	movq	8(%rcx), %rdx
	movq	%rax, (%rsi)
	movq	%rdx, 8(%rsi)
	movl	16(%rcx), %eax
	movl	%eax, 16(%rsi)
	call	Getkey
	addq	$32, %rsp
	.loc 1 137 23 discriminator 1
	cmpl	%eax, -22536(%rbp)
	jne	.L23
	.loc 1 139 14
	addl	$1, -22580(%rbp)
	jmp	.L24
.L23:
	.loc 1 144 17
	addl	$1, -22576(%rbp)
.L24:
.LBE9:
	.loc 1 133 28 discriminator 2
	addl	$1, -22572(%rbp)
.L22:
	.loc 1 133 16 discriminator 1
	cmpl	$1023, -22572(%rbp)
	jle	.L25
.LBE8:
	.loc 1 148 2
	movl	-22576(%rbp), %edx
	movl	-22580(%rbp), %eax
	movl	%eax, %esi
	leaq	.LC3(%rip), %rax
	movq	%rax, %rdi
	movl	$0, %eax
	call	printf@PLT
	.loc 1 153 2
	leaq	-22496(%rbp), %rax
	movl	$2000, %edx
	movl	$0, %esi
	movq	%rax, %rdi
	call	memset@PLT
	.loc 1 156 2
	leaq	.LC4(%rip), %rax
	movq	%rax, %rdi
	call	puts@PLT
.LBB10:
	.loc 1 157 11
	movl	$0, -22568(%rbp)
	.loc 1 157 2
	jmp	.L26
.L27:
.LBB11:
	.loc 1 159 13
	subq	$8, %rsp
	movl	-22568(%rbp), %eax
	movslq	%eax, %rdx
	movq	%rdx, %rax
	salq	$2, %rax
	addq	%rdx, %rax
	salq	$2, %rax
	addq	%rbp, %rax
	leaq	-20496(%rax), %rcx
	subq	$24, %rsp
	movq	%rsp, %rsi
	movq	(%rcx), %rax
	movq	8(%rcx), %rdx
	movq	%rax, (%rsi)
	movq	%rdx, 8(%rsi)
	movl	16(%rcx), %eax
	movl	%eax, 16(%rsi)
	call	Getkey
	addq	$32, %rsp
	movl	%eax, -22540(%rbp)
	.loc 1 161 14
	leaq	-20496(%rbp), %rcx
	movl	-22568(%rbp), %eax
	movslq	%eax, %rdx
	movq	%rdx, %rax
	salq	$2, %rax
	addq	%rdx, %rax
	salq	$2, %rax
	leaq	(%rcx,%rax), %rsi
	.loc 1 160 11
	movl	-22540(%rbp), %edx
	leaq	-22496(%rbp), %rax
	movq	MultMethod@GOTPCREL(%rip), %rcx
	movq	%rcx, %r9
	movq	%rsi, %r8
	movl	%edx, %ecx
	movl	$100, %edx
	movl	$20, %esi
	movq	%rax, %rdi
	call	InsertFailCollision@PLT
.LBE11:
	.loc 1 157 28
	addl	$1, -22568(%rbp)
.L26:
	.loc 1 157 16 discriminator 1
	cmpl	$1023, -22568(%rbp)
	jle	.L27
.LBE10:
	.loc 1 168 12
	movl	$0, -22580(%rbp)
	.loc 1 169 15
	movl	$0, -22576(%rbp)
.LBB12:
	.loc 1 170 11
	movl	$0, -22564(%rbp)
	.loc 1 170 2
	jmp	.L28
.L31:
.LBB13:
	.loc 1 172 13
	subq	$8, %rsp
	movl	-22564(%rbp), %eax
	movslq	%eax, %rdx
	movq	%rdx, %rax
	salq	$2, %rax
	addq	%rdx, %rax
	salq	$2, %rax
	addq	%rbp, %rax
	leaq	-20496(%rax), %rcx
	subq	$24, %rsp
	movq	%rsp, %rsi
	movq	(%rcx), %rax
	movq	8(%rcx), %rdx
	movq	%rax, (%rsi)
	movq	%rdx, 8(%rsi)
	movl	16(%rcx), %eax
	movl	%eax, 16(%rsi)
	call	Getkey
	addq	$32, %rsp
	movl	%eax, -22544(%rbp)
	.loc 1 173 26
	movl	-22544(%rbp), %esi
	leaq	-22496(%rbp), %rax
	movq	MultMethod@GOTPCREL(%rip), %rdx
	movq	%rdx, %rcx
	movl	$20, %edx
	movq	%rax, %rdi
	call	SearchNoCollision@PLT
	movq	%rax, -22512(%rbp)
	.loc 1 174 6
	cmpq	$0, -22512(%rbp)
	je	.L29
	.loc 1 174 26 discriminator 1
	subq	$8, %rsp
	movq	-22512(%rbp), %rcx
	subq	$24, %rsp
	movq	%rsp, %rsi
	movq	(%rcx), %rax
	movq	8(%rcx), %rdx
	movq	%rax, (%rsi)
	movq	%rdx, 8(%rsi)
	movl	16(%rcx), %eax
	movl	%eax, 16(%rsi)
	call	Getkey
	addq	$32, %rsp
	.loc 1 174 23 discriminator 1
	cmpl	%eax, -22544(%rbp)
	jne	.L29
	.loc 1 176 14
	addl	$1, -22580(%rbp)
	jmp	.L30
.L29:
	.loc 1 181 17
	addl	$1, -22576(%rbp)
.L30:
.LBE13:
	.loc 1 170 28 discriminator 2
	addl	$1, -22564(%rbp)
.L28:
	.loc 1 170 16 discriminator 1
	cmpl	$1023, -22564(%rbp)
	jle	.L31
.LBE12:
	.loc 1 185 2
	movl	-22576(%rbp), %edx
	movl	-22580(%rbp), %eax
	movl	%eax, %esi
	leaq	.LC3(%rip), %rax
	movq	%rax, %rdi
	movl	$0, %eax
	call	printf@PLT
	.loc 1 191 20
	movl	$100, %edi
	call	AllocateChainTable@PLT
	movq	%rax, -22528(%rbp)
	.loc 1 194 2
	leaq	.LC5(%rip), %rax
	movq	%rax, %rdi
	call	puts@PLT
.LBB14:
	.loc 1 195 11
	movl	$0, -22560(%rbp)
	.loc 1 195 2
	jmp	.L32
.L33:
.LBB15:
	.loc 1 197 13
	subq	$8, %rsp
	movl	-22560(%rbp), %eax
	movslq	%eax, %rdx
	movq	%rdx, %rax
	salq	$2, %rax
	addq	%rdx, %rax
	salq	$2, %rax
	addq	%rbp, %rax
	leaq	-20496(%rax), %rcx
	subq	$24, %rsp
	movq	%rsp, %rsi
	movq	(%rcx), %rax
	movq	8(%rcx), %rdx
	movq	%rax, (%rsi)
	movq	%rdx, 8(%rsi)
	movl	16(%rcx), %eax
	movl	%eax, 16(%rsi)
	call	Getkey
	addq	$32, %rsp
	movl	%eax, -22548(%rbp)
	.loc 1 200 14
	leaq	-20496(%rbp), %rcx
	movl	-22560(%rbp), %eax
	movslq	%eax, %rdx
	movq	%rdx, %rax
	salq	$2, %rax
	addq	%rdx, %rax
	salq	$2, %rax
	leaq	(%rcx,%rax), %rsi
	.loc 1 199 11
	movl	-22548(%rbp), %edx
	movq	-22528(%rbp), %rax
	movq	MultMethod@GOTPCREL(%rip), %rcx
	movq	%rcx, %r9
	movq	%rsi, %r8
	movl	%edx, %ecx
	movl	$100, %edx
	movl	$20, %esi
	movq	%rax, %rdi
	call	InsertChain@PLT
.LBE15:
	.loc 1 195 28
	addl	$1, -22560(%rbp)
.L32:
	.loc 1 195 16 discriminator 1
	cmpl	$1023, -22560(%rbp)
	jle	.L33
.LBE14:
	.loc 1 209 12
	movl	$0, -22580(%rbp)
	.loc 1 210 15
	movl	$0, -22576(%rbp)
.LBB16:
	.loc 1 211 11
	movl	$0, -22556(%rbp)
	.loc 1 211 2
	jmp	.L34
.L37:
.LBB17:
	.loc 1 213 13
	subq	$8, %rsp
	movl	-22556(%rbp), %eax
	movslq	%eax, %rdx
	movq	%rdx, %rax
	salq	$2, %rax
	addq	%rdx, %rax
	salq	$2, %rax
	addq	%rbp, %rax
	leaq	-20496(%rax), %rcx
	subq	$24, %rsp
	movq	%rsp, %rsi
	movq	(%rcx), %rax
	movq	8(%rcx), %rdx
	movq	%rax, (%rsi)
	movq	%rdx, 8(%rsi)
	movl	16(%rcx), %eax
	movl	%eax, 16(%rsi)
	call	Getkey
	addq	$32, %rsp
	movl	%eax, -22552(%rbp)
	.loc 1 214 26
	movl	-22552(%rbp), %esi
	movq	-22528(%rbp), %rax
	movq	MultMethod@GOTPCREL(%rip), %rdx
	movq	%rdx, %rcx
	movl	$20, %edx
	movq	%rax, %rdi
	call	SearchChain@PLT
	movq	%rax, -22520(%rbp)
	.loc 1 215 6
	cmpq	$0, -22520(%rbp)
	je	.L35
	.loc 1 215 26 discriminator 1
	subq	$8, %rsp
	movq	-22520(%rbp), %rcx
	subq	$24, %rsp
	movq	%rsp, %rsi
	movq	(%rcx), %rax
	movq	8(%rcx), %rdx
	movq	%rax, (%rsi)
	movq	%rdx, 8(%rsi)
	movl	16(%rcx), %eax
	movl	%eax, 16(%rsi)
	call	Getkey
	addq	$32, %rsp
	.loc 1 215 23 discriminator 1
	cmpl	%eax, -22552(%rbp)
	jne	.L35
	.loc 1 217 14
	addl	$1, -22580(%rbp)
	jmp	.L36
.L35:
	.loc 1 222 17
	addl	$1, -22576(%rbp)
.L36:
.LBE17:
	.loc 1 211 28 discriminator 2
	addl	$1, -22556(%rbp)
.L34:
	.loc 1 211 16 discriminator 1
	cmpl	$1023, -22556(%rbp)
	jle	.L37
.LBE16:
	.loc 1 226 2
	movl	-22576(%rbp), %edx
	movl	-22580(%rbp), %eax
	movl	%eax, %esi
	leaq	.LC3(%rip), %rax
	movq	%rax, %rdi
	movl	$0, %eax
	call	printf@PLT
	.loc 1 230 2
	movq	-22528(%rbp), %rax
	movq	%rax, %rdi
	call	FreeChainTable@PLT
	movl	$0, %eax
	.loc 1 231 1
	movq	-8(%rbp), %rdx
	subq	%fs:40, %rdx
	je	.L39
	call	__stack_chk_fail@PLT
.L39:
	leave
	.cfi_def_cfa 7, 8
	ret
	.cfi_endproc
.LFE6:
	.size	main, .-main
	.data
	.type	cFNameStart.2, @object
	.size	cFNameStart.2, 1
cFNameStart.2:
	.byte	65
	.type	cLNameStart.1, @object
	.size	cLNameStart.1, 1
cLNameStart.1:
	.byte	65
	.local	lastAN.0
	.comm	lastAN.0,4,4
	.text
.Letext0:
	.file 2 "/usr/lib/gcc/x86_64-linux-gnu/11/include/stddef.h"
	.file 3 "hash.h"
	.file 4 "/usr/include/string.h"
	.file 5 "/usr/include/stdio.h"
	.section	.note.GNU-stack,"",@progbits
	.section	.note.gnu.property,"a"
	.align 8
	.long	1f - 0f
	.long	4f - 1f
	.long	5
0:
	.string	"GNU"
1:
	.align 8
	.long	0xc0000002
	.long	3f - 2f
2:
	.long	0x3
3:
	.align 8
4:
